
aes.riscv:     file format elf32-littleriscv


Disassembly of section .text.init:

80000000 <_start>:
80000000:	00000093          	li	ra,0
80000004:	00000113          	li	sp,0
80000008:	00000193          	li	gp,0
8000000c:	00000213          	li	tp,0
80000010:	00000293          	li	t0,0
80000014:	00000313          	li	t1,0
80000018:	00000393          	li	t2,0
8000001c:	00000413          	li	s0,0
80000020:	00000493          	li	s1,0
80000024:	00000513          	li	a0,0
80000028:	00000593          	li	a1,0
8000002c:	00000613          	li	a2,0
80000030:	00000693          	li	a3,0
80000034:	00000713          	li	a4,0
80000038:	00000793          	li	a5,0
8000003c:	00000813          	li	a6,0
80000040:	00000893          	li	a7,0
80000044:	00000913          	li	s2,0
80000048:	00000993          	li	s3,0
8000004c:	00000a13          	li	s4,0
80000050:	00000a93          	li	s5,0
80000054:	00000b13          	li	s6,0
80000058:	00000b93          	li	s7,0
8000005c:	00000c13          	li	s8,0
80000060:	00000c93          	li	s9,0
80000064:	00000d13          	li	s10,0
80000068:	00000d93          	li	s11,0
8000006c:	00000e13          	li	t3,0
80000070:	00000e93          	li	t4,0
80000074:	00000f13          	li	t5,0
80000078:	00000f93          	li	t6,0
8000007c:	0001e2b7          	lui	t0,0x1e
80000080:	3002a073          	csrs	mstatus,t0
80000084:	00100293          	li	t0,1
80000088:	01f29293          	slli	t0,t0,0x1f
8000008c:	0002ca63          	bltz	t0,800000a0 <_start+0xa0>
80000090:	00100513          	li	a0,1
80000094:	00001297          	auipc	t0,0x1
80000098:	f6a2a623          	sw	a0,-148(t0) # 80001000 <tohost>
8000009c:	ff5ff06f          	j	80000090 <_start+0x90>
800000a0:	00000297          	auipc	t0,0x0
800000a4:	05428293          	addi	t0,t0,84 # 800000f4 <trap_entry>
800000a8:	30529073          	csrw	mtvec,t0
800000ac:	00003197          	auipc	gp,0x3
800000b0:	75418193          	addi	gp,gp,1876 # 80003800 <__global_pointer$>
800000b4:	00003217          	auipc	tp,0x3
800000b8:	f8b20213          	addi	tp,tp,-117 # 8000303f <_end+0x3f>
800000bc:	fc027213          	andi	tp,tp,-64
800000c0:	f1402573          	csrr	a0,mhartid
800000c4:	00100593          	li	a1,1
800000c8:	00b57063          	bgeu	a0,a1,800000c8 <_start+0xc8>
800000cc:	00150113          	addi	sp,a0,1
800000d0:	01111113          	slli	sp,sp,0x11
800000d4:	00410133          	add	sp,sp,tp
800000d8:	01151613          	slli	a2,a0,0x11
800000dc:	00c20233          	add	tp,tp,a2
800000e0:	5f8020ef          	jal	ra,800026d8 <main>
800000e4:	00100193          	li	gp,1

800000e8 <write_tohost>:
800000e8:	00001f17          	auipc	t5,0x1
800000ec:	f03f2c23          	sw	gp,-232(t5) # 80001000 <tohost>
800000f0:	ff9ff06f          	j	800000e8 <write_tohost>

800000f4 <trap_entry>:
800000f4:	ef010113          	addi	sp,sp,-272
800000f8:	00112223          	sw	ra,4(sp)
800000fc:	00212423          	sw	sp,8(sp)
80000100:	00312623          	sw	gp,12(sp)
80000104:	00412823          	sw	tp,16(sp)
80000108:	00512a23          	sw	t0,20(sp)
8000010c:	00612c23          	sw	t1,24(sp)
80000110:	00712e23          	sw	t2,28(sp)
80000114:	02812023          	sw	s0,32(sp)
80000118:	02912223          	sw	s1,36(sp)
8000011c:	02a12423          	sw	a0,40(sp)
80000120:	02b12623          	sw	a1,44(sp)
80000124:	02c12823          	sw	a2,48(sp)
80000128:	02d12a23          	sw	a3,52(sp)
8000012c:	02e12c23          	sw	a4,56(sp)
80000130:	02f12e23          	sw	a5,60(sp)
80000134:	05012023          	sw	a6,64(sp)
80000138:	05112223          	sw	a7,68(sp)
8000013c:	05212423          	sw	s2,72(sp)
80000140:	05312623          	sw	s3,76(sp)
80000144:	05412823          	sw	s4,80(sp)
80000148:	05512a23          	sw	s5,84(sp)
8000014c:	05612c23          	sw	s6,88(sp)
80000150:	05712e23          	sw	s7,92(sp)
80000154:	07812023          	sw	s8,96(sp)
80000158:	07912223          	sw	s9,100(sp)
8000015c:	07a12423          	sw	s10,104(sp)
80000160:	07b12623          	sw	s11,108(sp)
80000164:	07c12823          	sw	t3,112(sp)
80000168:	07d12a23          	sw	t4,116(sp)
8000016c:	07e12c23          	sw	t5,120(sp)
80000170:	07f12e23          	sw	t6,124(sp)
80000174:	34202573          	csrr	a0,mcause
80000178:	341025f3          	csrr	a1,mepc
8000017c:	00010613          	mv	a2,sp
80000180:	6a1010ef          	jal	ra,80002020 <handle_trap>
80000184:	34151073          	csrw	mepc,a0
80000188:	000022b7          	lui	t0,0x2
8000018c:	80028293          	addi	t0,t0,-2048 # 1800 <_start-0x7fffe800>
80000190:	3002a073          	csrs	mstatus,t0
80000194:	00412083          	lw	ra,4(sp)
80000198:	00812103          	lw	sp,8(sp)
8000019c:	00c12183          	lw	gp,12(sp)
800001a0:	01012203          	lw	tp,16(sp)
800001a4:	01412283          	lw	t0,20(sp)
800001a8:	01812303          	lw	t1,24(sp)
800001ac:	01c12383          	lw	t2,28(sp)
800001b0:	02012403          	lw	s0,32(sp)
800001b4:	02412483          	lw	s1,36(sp)
800001b8:	02812503          	lw	a0,40(sp)
800001bc:	02c12583          	lw	a1,44(sp)
800001c0:	03012603          	lw	a2,48(sp)
800001c4:	03412683          	lw	a3,52(sp)
800001c8:	03812703          	lw	a4,56(sp)
800001cc:	03c12783          	lw	a5,60(sp)
800001d0:	04012803          	lw	a6,64(sp)
800001d4:	04412883          	lw	a7,68(sp)
800001d8:	04812903          	lw	s2,72(sp)
800001dc:	04c12983          	lw	s3,76(sp)
800001e0:	05012a03          	lw	s4,80(sp)
800001e4:	05412a83          	lw	s5,84(sp)
800001e8:	05812b03          	lw	s6,88(sp)
800001ec:	05c12b83          	lw	s7,92(sp)
800001f0:	06012c03          	lw	s8,96(sp)
800001f4:	06412c83          	lw	s9,100(sp)
800001f8:	06812d03          	lw	s10,104(sp)
800001fc:	06c12d83          	lw	s11,108(sp)
80000200:	07012e03          	lw	t3,112(sp)
80000204:	07412e83          	lw	t4,116(sp)
80000208:	07812f03          	lw	t5,120(sp)
8000020c:	07c12f83          	lw	t6,124(sp)
80000210:	11010113          	addi	sp,sp,272
80000214:	30200073          	mret

Disassembly of section .text:

80002000 <tohost_exit>:
80002000:	00151513          	slli	a0,a0,0x1
80002004:	fffff697          	auipc	a3,0xfffff
80002008:	ffc68693          	addi	a3,a3,-4 # 80001000 <tohost>
8000200c:	00156713          	ori	a4,a0,1
80002010:	00000793          	li	a5,0
80002014:	00e6a023          	sw	a4,0(a3)
80002018:	00f6a223          	sw	a5,4(a3)
8000201c:	0000006f          	j	8000201c <tohost_exit+0x1c>

80002020 <handle_trap>:
80002020:	00001637          	lui	a2,0x1
80002024:	fffff797          	auipc	a5,0xfffff
80002028:	fdc78793          	addi	a5,a5,-36 # 80001000 <tohost>
8000202c:	a7360613          	addi	a2,a2,-1421 # a73 <_start-0x7ffff58d>
80002030:	00000693          	li	a3,0
80002034:	00c7a023          	sw	a2,0(a5)
80002038:	00d7a223          	sw	a3,4(a5)
8000203c:	0000006f          	j	8000203c <handle_trap+0x1c>

80002040 <exit>:
80002040:	ff010113          	addi	sp,sp,-16
80002044:	00112623          	sw	ra,12(sp)
80002048:	fb9ff0ef          	jal	ra,80002000 <tohost_exit>

8000204c <abort>:
8000204c:	fffff797          	auipc	a5,0xfffff
80002050:	fb478793          	addi	a5,a5,-76 # 80001000 <tohost>
80002054:	10d00613          	li	a2,269
80002058:	00000693          	li	a3,0
8000205c:	00c7a023          	sw	a2,0(a5)
80002060:	00d7a223          	sw	a3,4(a5)
80002064:	0000006f          	j	80002064 <abort+0x18>

80002068 <rj_xtime>:
80002068:	01851793          	slli	a5,a0,0x18
8000206c:	4187d793          	srai	a5,a5,0x18
80002070:	00151513          	slli	a0,a0,0x1
80002074:	0007c663          	bltz	a5,80002080 <rj_xtime+0x18>
80002078:	0ff57513          	andi	a0,a0,255
8000207c:	00008067          	ret
80002080:	01b54513          	xori	a0,a0,27
80002084:	0ff57513          	andi	a0,a0,255
80002088:	00008067          	ret

8000208c <aes_subBytes>:
8000208c:	00f50793          	addi	a5,a0,15
80002090:	00000697          	auipc	a3,0x0
80002094:	6ac68693          	addi	a3,a3,1708 # 8000273c <sbox>
80002098:	fff50513          	addi	a0,a0,-1
8000209c:	0007c703          	lbu	a4,0(a5)
800020a0:	fff78793          	addi	a5,a5,-1
800020a4:	00e68733          	add	a4,a3,a4
800020a8:	00074703          	lbu	a4,0(a4)
800020ac:	00e780a3          	sb	a4,1(a5)
800020b0:	fea796e3          	bne	a5,a0,8000209c <aes_subBytes+0x10>
800020b4:	00008067          	ret

800020b8 <aes_addRoundKey>:
800020b8:	00f50793          	addi	a5,a0,15
800020bc:	00f58593          	addi	a1,a1,15
800020c0:	fff50513          	addi	a0,a0,-1
800020c4:	0007c703          	lbu	a4,0(a5)
800020c8:	0005c683          	lbu	a3,0(a1)
800020cc:	fff78793          	addi	a5,a5,-1
800020d0:	fff58593          	addi	a1,a1,-1
800020d4:	00d74733          	xor	a4,a4,a3
800020d8:	00e780a3          	sb	a4,1(a5)
800020dc:	fea794e3          	bne	a5,a0,800020c4 <aes_addRoundKey+0xc>
800020e0:	00008067          	ret

800020e4 <aes_addRoundKey_cpy>:
800020e4:	00f58793          	addi	a5,a1,15
800020e8:	00f60613          	addi	a2,a2,15
800020ec:	00f50513          	addi	a0,a0,15
800020f0:	fff58593          	addi	a1,a1,-1
800020f4:	0007c703          	lbu	a4,0(a5)
800020f8:	fff60613          	addi	a2,a2,-1
800020fc:	fff50513          	addi	a0,a0,-1
80002100:	00e600a3          	sb	a4,1(a2)
80002104:	00154683          	lbu	a3,1(a0)
80002108:	fff78793          	addi	a5,a5,-1
8000210c:	00d74733          	xor	a4,a4,a3
80002110:	00e500a3          	sb	a4,1(a0)
80002114:	0117c703          	lbu	a4,17(a5)
80002118:	00e608a3          	sb	a4,17(a2)
8000211c:	fcb79ce3          	bne	a5,a1,800020f4 <aes_addRoundKey_cpy+0x10>
80002120:	00008067          	ret

80002124 <aes_shiftRows>:
80002124:	00154e03          	lbu	t3,1(a0)
80002128:	00554f83          	lbu	t6,5(a0)
8000212c:	00954f03          	lbu	t5,9(a0)
80002130:	00d54e83          	lbu	t4,13(a0)
80002134:	00a54883          	lbu	a7,10(a0)
80002138:	00254303          	lbu	t1,2(a0)
8000213c:	00354683          	lbu	a3,3(a0)
80002140:	00f54803          	lbu	a6,15(a0)
80002144:	00b54583          	lbu	a1,11(a0)
80002148:	00754603          	lbu	a2,7(a0)
8000214c:	00e54783          	lbu	a5,14(a0)
80002150:	00654703          	lbu	a4,6(a0)
80002154:	01f500a3          	sb	t6,1(a0)
80002158:	01e502a3          	sb	t5,5(a0)
8000215c:	01d504a3          	sb	t4,9(a0)
80002160:	01c506a3          	sb	t3,13(a0)
80002164:	00650523          	sb	t1,10(a0)
80002168:	01150123          	sb	a7,2(a0)
8000216c:	010501a3          	sb	a6,3(a0)
80002170:	00b507a3          	sb	a1,15(a0)
80002174:	00c505a3          	sb	a2,11(a0)
80002178:	00d503a3          	sb	a3,7(a0)
8000217c:	00e50723          	sb	a4,14(a0)
80002180:	00f50323          	sb	a5,6(a0)
80002184:	00008067          	ret

80002188 <aes_mixColumns>:
80002188:	ff010113          	addi	sp,sp,-16
8000218c:	00812623          	sw	s0,12(sp)
80002190:	00912423          	sw	s1,8(sp)
80002194:	01050f93          	addi	t6,a0,16
80002198:	00054883          	lbu	a7,0(a0)
8000219c:	00154803          	lbu	a6,1(a0)
800021a0:	00254383          	lbu	t2,2(a0)
800021a4:	00354e03          	lbu	t3,3(a0)
800021a8:	0108c7b3          	xor	a5,a7,a6
800021ac:	007845b3          	xor	a1,a6,t2
800021b0:	01c8c633          	xor	a2,a7,t3
800021b4:	01c3c333          	xor	t1,t2,t3
800021b8:	01879713          	slli	a4,a5,0x18
800021bc:	00179693          	slli	a3,a5,0x1
800021c0:	01861413          	slli	s0,a2,0x18
800021c4:	00159f13          	slli	t5,a1,0x1
800021c8:	01831493          	slli	s1,t1,0x18
800021cc:	01859593          	slli	a1,a1,0x18
800021d0:	41875713          	srai	a4,a4,0x18
800021d4:	00161293          	slli	t0,a2,0x1
800021d8:	00131e93          	slli	t4,t1,0x1
800021dc:	4185d593          	srai	a1,a1,0x18
800021e0:	4184d493          	srai	s1,s1,0x18
800021e4:	41845413          	srai	s0,s0,0x18
800021e8:	0067c7b3          	xor	a5,a5,t1
800021ec:	0ff6f613          	andi	a2,a3,255
800021f0:	00075663          	bgez	a4,800021fc <aes_mixColumns+0x74>
800021f4:	01b6c613          	xori	a2,a3,27
800021f8:	0ff67613          	andi	a2,a2,255
800021fc:	00c7c633          	xor	a2,a5,a2
80002200:	01164633          	xor	a2,a2,a7
80002204:	00c50023          	sb	a2,0(a0)
80002208:	0fff7693          	andi	a3,t5,255
8000220c:	0005d663          	bgez	a1,80002218 <aes_mixColumns+0x90>
80002210:	01bf4693          	xori	a3,t5,27
80002214:	0ff6f693          	andi	a3,a3,255
80002218:	00d7c6b3          	xor	a3,a5,a3
8000221c:	0106c6b3          	xor	a3,a3,a6
80002220:	00d500a3          	sb	a3,1(a0)
80002224:	0ffef713          	andi	a4,t4,255
80002228:	0004d663          	bgez	s1,80002234 <aes_mixColumns+0xac>
8000222c:	01bece93          	xori	t4,t4,27
80002230:	0ffef713          	andi	a4,t4,255
80002234:	00e7c733          	xor	a4,a5,a4
80002238:	00774733          	xor	a4,a4,t2
8000223c:	00e50123          	sb	a4,2(a0)
80002240:	0ff2f713          	andi	a4,t0,255
80002244:	00045663          	bgez	s0,80002250 <aes_mixColumns+0xc8>
80002248:	01b2c713          	xori	a4,t0,27
8000224c:	0ff77713          	andi	a4,a4,255
80002250:	00e7c7b3          	xor	a5,a5,a4
80002254:	01c7c7b3          	xor	a5,a5,t3
80002258:	00f501a3          	sb	a5,3(a0)
8000225c:	00450513          	addi	a0,a0,4
80002260:	f2af9ce3          	bne	t6,a0,80002198 <aes_mixColumns+0x10>
80002264:	00c12403          	lw	s0,12(sp)
80002268:	00812483          	lw	s1,8(sp)
8000226c:	01010113          	addi	sp,sp,16
80002270:	00008067          	ret

80002274 <aes_expandEncKey>:
80002274:	01d54883          	lbu	a7,29(a0)
80002278:	01e54603          	lbu	a2,30(a0)
8000227c:	01f54683          	lbu	a3,31(a0)
80002280:	01c54703          	lbu	a4,28(a0)
80002284:	00000817          	auipc	a6,0x0
80002288:	4b880813          	addi	a6,a6,1208 # 8000273c <sbox>
8000228c:	0005cf03          	lbu	t5,0(a1)
80002290:	00054783          	lbu	a5,0(a0)
80002294:	011808b3          	add	a7,a6,a7
80002298:	00c80633          	add	a2,a6,a2
8000229c:	00d806b3          	add	a3,a6,a3
800022a0:	00e80733          	add	a4,a6,a4
800022a4:	00154e83          	lbu	t4,1(a0)
800022a8:	00254e03          	lbu	t3,2(a0)
800022ac:	00354303          	lbu	t1,3(a0)
800022b0:	0008c883          	lbu	a7,0(a7)
800022b4:	00064603          	lbu	a2,0(a2)
800022b8:	0006c683          	lbu	a3,0(a3)
800022bc:	00074703          	lbu	a4,0(a4)
800022c0:	01e7c7b3          	xor	a5,a5,t5
800022c4:	0117c7b3          	xor	a5,a5,a7
800022c8:	01d64633          	xor	a2,a2,t4
800022cc:	01c6c6b3          	xor	a3,a3,t3
800022d0:	00674733          	xor	a4,a4,t1
800022d4:	00f50023          	sb	a5,0(a0)
800022d8:	00c500a3          	sb	a2,1(a0)
800022dc:	00e501a3          	sb	a4,3(a0)
800022e0:	00d50123          	sb	a3,2(a0)
800022e4:	0005c683          	lbu	a3,0(a1)
800022e8:	00c50f13          	addi	t5,a0,12
800022ec:	00050793          	mv	a5,a0
800022f0:	0076d613          	srli	a2,a3,0x7
800022f4:	00361713          	slli	a4,a2,0x3
800022f8:	40c70733          	sub	a4,a4,a2
800022fc:	00271713          	slli	a4,a4,0x2
80002300:	40c70733          	sub	a4,a4,a2
80002304:	00169693          	slli	a3,a3,0x1
80002308:	00d74733          	xor	a4,a4,a3
8000230c:	00e58023          	sb	a4,0(a1)
80002310:	0047c583          	lbu	a1,4(a5)
80002314:	0057c603          	lbu	a2,5(a5)
80002318:	0067c683          	lbu	a3,6(a5)
8000231c:	0077c703          	lbu	a4,7(a5)
80002320:	0007ce83          	lbu	t4,0(a5)
80002324:	0017ce03          	lbu	t3,1(a5)
80002328:	0027c303          	lbu	t1,2(a5)
8000232c:	0037c883          	lbu	a7,3(a5)
80002330:	01d5c5b3          	xor	a1,a1,t4
80002334:	01c64633          	xor	a2,a2,t3
80002338:	0066c6b3          	xor	a3,a3,t1
8000233c:	01174733          	xor	a4,a4,a7
80002340:	00b78223          	sb	a1,4(a5)
80002344:	00c782a3          	sb	a2,5(a5)
80002348:	00d78323          	sb	a3,6(a5)
8000234c:	00e783a3          	sb	a4,7(a5)
80002350:	00478793          	addi	a5,a5,4
80002354:	fbe79ee3          	bne	a5,t5,80002310 <aes_expandEncKey+0x9c>
80002358:	00f54783          	lbu	a5,15(a0)
8000235c:	00c54303          	lbu	t1,12(a0)
80002360:	00d54883          	lbu	a7,13(a0)
80002364:	00e54583          	lbu	a1,14(a0)
80002368:	00680333          	add	t1,a6,t1
8000236c:	011808b3          	add	a7,a6,a7
80002370:	00b805b3          	add	a1,a6,a1
80002374:	00f80833          	add	a6,a6,a5
80002378:	01054f83          	lbu	t6,16(a0)
8000237c:	01154f03          	lbu	t5,17(a0)
80002380:	01254e83          	lbu	t4,18(a0)
80002384:	01354e03          	lbu	t3,19(a0)
80002388:	00034603          	lbu	a2,0(t1)
8000238c:	0008c683          	lbu	a3,0(a7)
80002390:	0005c703          	lbu	a4,0(a1)
80002394:	00084783          	lbu	a5,0(a6)
80002398:	01f64633          	xor	a2,a2,t6
8000239c:	01e6c6b3          	xor	a3,a3,t5
800023a0:	01c7c7b3          	xor	a5,a5,t3
800023a4:	01d74733          	xor	a4,a4,t4
800023a8:	00f509a3          	sb	a5,19(a0)
800023ac:	00c50823          	sb	a2,16(a0)
800023b0:	00d508a3          	sb	a3,17(a0)
800023b4:	00e50923          	sb	a4,18(a0)
800023b8:	01050793          	addi	a5,a0,16
800023bc:	01c50513          	addi	a0,a0,28
800023c0:	0047c583          	lbu	a1,4(a5)
800023c4:	0057c603          	lbu	a2,5(a5)
800023c8:	0067c683          	lbu	a3,6(a5)
800023cc:	0077c703          	lbu	a4,7(a5)
800023d0:	0007ce03          	lbu	t3,0(a5)
800023d4:	0017c303          	lbu	t1,1(a5)
800023d8:	0027c883          	lbu	a7,2(a5)
800023dc:	0037c803          	lbu	a6,3(a5)
800023e0:	01c5c5b3          	xor	a1,a1,t3
800023e4:	00664633          	xor	a2,a2,t1
800023e8:	0116c6b3          	xor	a3,a3,a7
800023ec:	01074733          	xor	a4,a4,a6
800023f0:	00b78223          	sb	a1,4(a5)
800023f4:	00c782a3          	sb	a2,5(a5)
800023f8:	00d78323          	sb	a3,6(a5)
800023fc:	00e783a3          	sb	a4,7(a5)
80002400:	00478793          	addi	a5,a5,4
80002404:	faf51ee3          	bne	a0,a5,800023c0 <aes_expandEncKey+0x14c>
80002408:	00008067          	ret

8000240c <aes256_encrypt_ecb>:
8000240c:	fc010113          	addi	sp,sp,-64
80002410:	00100793          	li	a5,1
80002414:	02812c23          	sw	s0,56(sp)
80002418:	03312623          	sw	s3,44(sp)
8000241c:	03412423          	sw	s4,40(sp)
80002420:	00f107a3          	sb	a5,15(sp)
80002424:	02112e23          	sw	ra,60(sp)
80002428:	02912a23          	sw	s1,52(sp)
8000242c:	03212823          	sw	s2,48(sp)
80002430:	03512223          	sw	s5,36(sp)
80002434:	03612023          	sw	s6,32(sp)
80002438:	01712e23          	sw	s7,28(sp)
8000243c:	01812c23          	sw	s8,24(sp)
80002440:	01912a23          	sw	s9,20(sp)
80002444:	00050993          	mv	s3,a0
80002448:	00060a13          	mv	s4,a2
8000244c:	02050793          	addi	a5,a0,32
80002450:	04050413          	addi	s0,a0,64
80002454:	0005c703          	lbu	a4,0(a1)
80002458:	00178793          	addi	a5,a5,1
8000245c:	00158593          	addi	a1,a1,1
80002460:	00e78fa3          	sb	a4,31(a5)
80002464:	fee78fa3          	sb	a4,-1(a5)
80002468:	fef416e3          	bne	s0,a5,80002454 <aes256_encrypt_ecb+0x48>
8000246c:	00700493          	li	s1,7
80002470:	fff48493          	addi	s1,s1,-1
80002474:	00f10593          	addi	a1,sp,15
80002478:	00040513          	mv	a0,s0
8000247c:	0ff4f493          	andi	s1,s1,255
80002480:	df5ff0ef          	jal	ra,80002274 <aes_expandEncKey>
80002484:	fe0496e3          	bnez	s1,80002470 <aes256_encrypt_ecb+0x64>
80002488:	00f98c13          	addi	s8,s3,15
8000248c:	00fa0b93          	addi	s7,s4,15
80002490:	02f98793          	addi	a5,s3,47
80002494:	01f98493          	addi	s1,s3,31
80002498:	000b8613          	mv	a2,s7
8000249c:	000c0693          	mv	a3,s8
800024a0:	0007c703          	lbu	a4,0(a5)
800024a4:	fff68693          	addi	a3,a3,-1
800024a8:	fff60613          	addi	a2,a2,-1
800024ac:	00e680a3          	sb	a4,1(a3)
800024b0:	00164583          	lbu	a1,1(a2)
800024b4:	fff78793          	addi	a5,a5,-1
800024b8:	00b74733          	xor	a4,a4,a1
800024bc:	00e600a3          	sb	a4,1(a2)
800024c0:	0117c703          	lbu	a4,17(a5)
800024c4:	00e688a3          	sb	a4,17(a3)
800024c8:	fc979ce3          	bne	a5,s1,800024a0 <aes256_encrypt_ecb+0x94>
800024cc:	00100793          	li	a5,1
800024d0:	00f107a3          	sb	a5,15(sp)
800024d4:	00100c93          	li	s9,1
800024d8:	00000a97          	auipc	s5,0x0
800024dc:	264a8a93          	addi	s5,s5,612 # 8000273c <sbox>
800024e0:	fffa0b13          	addi	s6,s4,-1
800024e4:	00e00913          	li	s2,14
800024e8:	000b8413          	mv	s0,s7
800024ec:	00044783          	lbu	a5,0(s0)
800024f0:	fff40413          	addi	s0,s0,-1
800024f4:	00fa87b3          	add	a5,s5,a5
800024f8:	0007c783          	lbu	a5,0(a5)
800024fc:	00f400a3          	sb	a5,1(s0)
80002500:	fe8b16e3          	bne	s6,s0,800024ec <aes256_encrypt_ecb+0xe0>
80002504:	00fa4503          	lbu	a0,15(s4)
80002508:	00ea4783          	lbu	a5,14(s4)
8000250c:	001a4303          	lbu	t1,1(s4)
80002510:	005a4f03          	lbu	t5,5(s4)
80002514:	009a4e83          	lbu	t4,9(s4)
80002518:	00da4e03          	lbu	t3,13(s4)
8000251c:	00aa4803          	lbu	a6,10(s4)
80002520:	002a4883          	lbu	a7,2(s4)
80002524:	003a4683          	lbu	a3,3(s4)
80002528:	00ba4583          	lbu	a1,11(s4)
8000252c:	007a4603          	lbu	a2,7(s4)
80002530:	006a4703          	lbu	a4,6(s4)
80002534:	00aa01a3          	sb	a0,3(s4)
80002538:	00fa0323          	sb	a5,6(s4)
8000253c:	01ea00a3          	sb	t5,1(s4)
80002540:	01da02a3          	sb	t4,5(s4)
80002544:	01ca04a3          	sb	t3,9(s4)
80002548:	006a06a3          	sb	t1,13(s4)
8000254c:	011a0523          	sb	a7,10(s4)
80002550:	010a0123          	sb	a6,2(s4)
80002554:	00ba07a3          	sb	a1,15(s4)
80002558:	00ca05a3          	sb	a2,11(s4)
8000255c:	00da03a3          	sb	a3,7(s4)
80002560:	00ea0723          	sb	a4,14(s4)
80002564:	000a0513          	mv	a0,s4
80002568:	c21ff0ef          	jal	ra,80002188 <aes_mixColumns>
8000256c:	001cf793          	andi	a5,s9,1
80002570:	10078663          	beqz	a5,8000267c <aes256_encrypt_ecb+0x270>
80002574:	00048693          	mv	a3,s1
80002578:	000b8793          	mv	a5,s7
8000257c:	0007c703          	lbu	a4,0(a5)
80002580:	0006c603          	lbu	a2,0(a3)
80002584:	fff78793          	addi	a5,a5,-1
80002588:	fff68693          	addi	a3,a3,-1
8000258c:	00c74733          	xor	a4,a4,a2
80002590:	00e780a3          	sb	a4,1(a5)
80002594:	fe8794e3          	bne	a5,s0,8000257c <aes256_encrypt_ecb+0x170>
80002598:	001c8c93          	addi	s9,s9,1
8000259c:	0ffcfc93          	andi	s9,s9,255
800025a0:	f52c94e3          	bne	s9,s2,800024e8 <aes256_encrypt_ecb+0xdc>
800025a4:	000b8493          	mv	s1,s7
800025a8:	0004c783          	lbu	a5,0(s1)
800025ac:	fff48493          	addi	s1,s1,-1
800025b0:	00fa87b3          	add	a5,s5,a5
800025b4:	0007c783          	lbu	a5,0(a5)
800025b8:	00f480a3          	sb	a5,1(s1)
800025bc:	fe8496e3          	bne	s1,s0,800025a8 <aes256_encrypt_ecb+0x19c>
800025c0:	00fa4503          	lbu	a0,15(s4)
800025c4:	00ba4583          	lbu	a1,11(s4)
800025c8:	001a4303          	lbu	t1,1(s4)
800025cc:	005a4f03          	lbu	t5,5(s4)
800025d0:	009a4e83          	lbu	t4,9(s4)
800025d4:	00da4e03          	lbu	t3,13(s4)
800025d8:	00aa4803          	lbu	a6,10(s4)
800025dc:	002a4883          	lbu	a7,2(s4)
800025e0:	003a4683          	lbu	a3,3(s4)
800025e4:	007a4603          	lbu	a2,7(s4)
800025e8:	00ea4783          	lbu	a5,14(s4)
800025ec:	006a4703          	lbu	a4,6(s4)
800025f0:	00aa01a3          	sb	a0,3(s4)
800025f4:	00ba07a3          	sb	a1,15(s4)
800025f8:	01ea00a3          	sb	t5,1(s4)
800025fc:	01da02a3          	sb	t4,5(s4)
80002600:	01ca04a3          	sb	t3,9(s4)
80002604:	006a06a3          	sb	t1,13(s4)
80002608:	011a0523          	sb	a7,10(s4)
8000260c:	010a0123          	sb	a6,2(s4)
80002610:	00ca05a3          	sb	a2,11(s4)
80002614:	00da03a3          	sb	a3,7(s4)
80002618:	00ea0723          	sb	a4,14(s4)
8000261c:	00fa0323          	sb	a5,6(s4)
80002620:	00f10593          	addi	a1,sp,15
80002624:	00098513          	mv	a0,s3
80002628:	c4dff0ef          	jal	ra,80002274 <aes_expandEncKey>
8000262c:	000bc783          	lbu	a5,0(s7)
80002630:	000c4703          	lbu	a4,0(s8)
80002634:	fffb8b93          	addi	s7,s7,-1
80002638:	fffc0c13          	addi	s8,s8,-1
8000263c:	00e7c7b3          	xor	a5,a5,a4
80002640:	00fb80a3          	sb	a5,1(s7)
80002644:	ff7494e3          	bne	s1,s7,8000262c <aes256_encrypt_ecb+0x220>
80002648:	03c12083          	lw	ra,60(sp)
8000264c:	03812403          	lw	s0,56(sp)
80002650:	03412483          	lw	s1,52(sp)
80002654:	03012903          	lw	s2,48(sp)
80002658:	02c12983          	lw	s3,44(sp)
8000265c:	02812a03          	lw	s4,40(sp)
80002660:	02412a83          	lw	s5,36(sp)
80002664:	02012b03          	lw	s6,32(sp)
80002668:	01c12b83          	lw	s7,28(sp)
8000266c:	01812c03          	lw	s8,24(sp)
80002670:	01412c83          	lw	s9,20(sp)
80002674:	04010113          	addi	sp,sp,64
80002678:	00008067          	ret
8000267c:	00f10593          	addi	a1,sp,15
80002680:	00098513          	mv	a0,s3
80002684:	bf1ff0ef          	jal	ra,80002274 <aes_expandEncKey>
80002688:	000c0693          	mv	a3,s8
8000268c:	000b8793          	mv	a5,s7
80002690:	0007c703          	lbu	a4,0(a5)
80002694:	0006c603          	lbu	a2,0(a3)
80002698:	fff78793          	addi	a5,a5,-1
8000269c:	fff68693          	addi	a3,a3,-1
800026a0:	00c74733          	xor	a4,a4,a2
800026a4:	00e780a3          	sb	a4,1(a5)
800026a8:	fef414e3          	bne	s0,a5,80002690 <aes256_encrypt_ecb+0x284>
800026ac:	001c8c93          	addi	s9,s9,1
800026b0:	0ffcfc93          	andi	s9,s9,255
800026b4:	e32c9ae3          	bne	s9,s2,800024e8 <aes256_encrypt_ecb+0xdc>
800026b8:	eedff06f          	j	800025a4 <aes256_encrypt_ecb+0x198>

800026bc <_init>:
800026bc:	ff010113          	addi	sp,sp,-16
800026c0:	00112623          	sw	ra,12(sp)
800026c4:	014000ef          	jal	ra,800026d8 <main>
800026c8:	939ff0ef          	jal	ra,80002000 <tohost_exit>

800026cc <test>:
800026cc:	00000593          	li	a1,0
800026d0:	00000513          	li	a0,0
800026d4:	0040006f          	j	800026d8 <main>

Disassembly of section .text.startup:

800026d8 <main>:
800026d8:	f6010113          	addi	sp,sp,-160
800026dc:	08112e23          	sw	ra,156(sp)
800026e0:	00010713          	mv	a4,sp
800026e4:	01010593          	addi	a1,sp,16
800026e8:	00000793          	li	a5,0
800026ec:	00f70023          	sb	a5,0(a4)
800026f0:	01178793          	addi	a5,a5,17
800026f4:	00170713          	addi	a4,a4,1
800026f8:	0ff7f793          	andi	a5,a5,255
800026fc:	fee598e3          	bne	a1,a4,800026ec <main+0x14>
80002700:	00058713          	mv	a4,a1
80002704:	00000793          	li	a5,0
80002708:	02000613          	li	a2,32
8000270c:	00178693          	addi	a3,a5,1
80002710:	00f70023          	sb	a5,0(a4)
80002714:	0ff6f793          	andi	a5,a3,255
80002718:	00170713          	addi	a4,a4,1
8000271c:	fec798e3          	bne	a5,a2,8000270c <main+0x34>
80002720:	03010513          	addi	a0,sp,48
80002724:	00010613          	mv	a2,sp
80002728:	ce5ff0ef          	jal	ra,8000240c <aes256_encrypt_ecb>
8000272c:	09c12083          	lw	ra,156(sp)
80002730:	00000513          	li	a0,0
80002734:	0a010113          	addi	sp,sp,160
80002738:	00008067          	ret
