
coremark.riscv:     file format elf32-littleriscv


Disassembly of section .text.init:

80000000 <_start>:
80000000:	00000093          	li	ra,0
80000004:	00000113          	li	sp,0
80000008:	00000193          	li	gp,0
8000000c:	00000213          	li	tp,0
80000010:	00000293          	li	t0,0
80000014:	00000313          	li	t1,0
80000018:	00000393          	li	t2,0
8000001c:	00000413          	li	s0,0
80000020:	00000493          	li	s1,0
80000024:	00000513          	li	a0,0
80000028:	00000593          	li	a1,0
8000002c:	00000613          	li	a2,0
80000030:	00000693          	li	a3,0
80000034:	00000713          	li	a4,0
80000038:	00000793          	li	a5,0
8000003c:	00000813          	li	a6,0
80000040:	00000893          	li	a7,0
80000044:	00000913          	li	s2,0
80000048:	00000993          	li	s3,0
8000004c:	00000a13          	li	s4,0
80000050:	00000a93          	li	s5,0
80000054:	00000b13          	li	s6,0
80000058:	00000b93          	li	s7,0
8000005c:	00000c13          	li	s8,0
80000060:	00000c93          	li	s9,0
80000064:	00000d13          	li	s10,0
80000068:	00000d93          	li	s11,0
8000006c:	00000e13          	li	t3,0
80000070:	00000e93          	li	t4,0
80000074:	00000f13          	li	t5,0
80000078:	00000f93          	li	t6,0
8000007c:	0001e2b7          	lui	t0,0x1e
80000080:	3002a073          	csrs	mstatus,t0
80000084:	00100293          	li	t0,1
80000088:	01f29293          	slli	t0,t0,0x1f
8000008c:	0002ca63          	bltz	t0,800000a0 <_start+0xa0>
80000090:	00100513          	li	a0,1
80000094:	00001297          	auipc	t0,0x1
80000098:	f6a2a623          	sw	a0,-148(t0) # 80001000 <tohost>
8000009c:	ff5ff06f          	j	80000090 <_start+0x90>
800000a0:	00000297          	auipc	t0,0x0
800000a4:	05028293          	addi	t0,t0,80 # 800000f0 <trap_entry>
800000a8:	30529073          	csrw	mtvec,t0
800000ac:	00005197          	auipc	gp,0x5
800000b0:	76018193          	addi	gp,gp,1888 # 8000580c <__global_pointer$>
800000b4:	01b18213          	addi	tp,gp,27 # 80005827 <__global_pointer$+0x1b>
800000b8:	fc027213          	andi	tp,tp,-64
800000bc:	f1402573          	csrr	a0,mhartid
800000c0:	00100593          	li	a1,1
800000c4:	00b57063          	bgeu	a0,a1,800000c4 <_start+0xc4>
800000c8:	00150113          	addi	sp,a0,1
800000cc:	01111113          	slli	sp,sp,0x11
800000d0:	00410133          	add	sp,sp,tp
800000d4:	01151613          	slli	a2,a0,0x11
800000d8:	00c20233          	add	tp,tp,a2
800000dc:	401030ef          	jal	ra,80003cdc <main>
800000e0:	00100193          	li	gp,1

800000e4 <write_tohost>:
800000e4:	00001f17          	auipc	t5,0x1
800000e8:	f03f2e23          	sw	gp,-228(t5) # 80001000 <tohost>
800000ec:	ff9ff06f          	j	800000e4 <write_tohost>

800000f0 <trap_entry>:
800000f0:	ef010113          	addi	sp,sp,-272
800000f4:	00112223          	sw	ra,4(sp)
800000f8:	00212423          	sw	sp,8(sp)
800000fc:	00312623          	sw	gp,12(sp)
80000100:	00412823          	sw	tp,16(sp)
80000104:	00512a23          	sw	t0,20(sp)
80000108:	00612c23          	sw	t1,24(sp)
8000010c:	00712e23          	sw	t2,28(sp)
80000110:	02812023          	sw	s0,32(sp)
80000114:	02912223          	sw	s1,36(sp)
80000118:	02a12423          	sw	a0,40(sp)
8000011c:	02b12623          	sw	a1,44(sp)
80000120:	02c12823          	sw	a2,48(sp)
80000124:	02d12a23          	sw	a3,52(sp)
80000128:	02e12c23          	sw	a4,56(sp)
8000012c:	02f12e23          	sw	a5,60(sp)
80000130:	05012023          	sw	a6,64(sp)
80000134:	05112223          	sw	a7,68(sp)
80000138:	05212423          	sw	s2,72(sp)
8000013c:	05312623          	sw	s3,76(sp)
80000140:	05412823          	sw	s4,80(sp)
80000144:	05512a23          	sw	s5,84(sp)
80000148:	05612c23          	sw	s6,88(sp)
8000014c:	05712e23          	sw	s7,92(sp)
80000150:	07812023          	sw	s8,96(sp)
80000154:	07912223          	sw	s9,100(sp)
80000158:	07a12423          	sw	s10,104(sp)
8000015c:	07b12623          	sw	s11,108(sp)
80000160:	07c12823          	sw	t3,112(sp)
80000164:	07d12a23          	sw	t4,116(sp)
80000168:	07e12c23          	sw	t5,120(sp)
8000016c:	07f12e23          	sw	t6,124(sp)
80000170:	34202573          	csrr	a0,mcause
80000174:	341025f3          	csrr	a1,mepc
80000178:	00010613          	mv	a2,sp
8000017c:	231030ef          	jal	ra,80003bac <handle_trap>
80000180:	34151073          	csrw	mepc,a0
80000184:	000022b7          	lui	t0,0x2
80000188:	80028293          	addi	t0,t0,-2048 # 1800 <_start-0x7fffe800>
8000018c:	3002a073          	csrs	mstatus,t0
80000190:	00412083          	lw	ra,4(sp)
80000194:	00812103          	lw	sp,8(sp)
80000198:	00c12183          	lw	gp,12(sp)
8000019c:	01012203          	lw	tp,16(sp)
800001a0:	01412283          	lw	t0,20(sp)
800001a4:	01812303          	lw	t1,24(sp)
800001a8:	01c12383          	lw	t2,28(sp)
800001ac:	02012403          	lw	s0,32(sp)
800001b0:	02412483          	lw	s1,36(sp)
800001b4:	02812503          	lw	a0,40(sp)
800001b8:	02c12583          	lw	a1,44(sp)
800001bc:	03012603          	lw	a2,48(sp)
800001c0:	03412683          	lw	a3,52(sp)
800001c4:	03812703          	lw	a4,56(sp)
800001c8:	03c12783          	lw	a5,60(sp)
800001cc:	04012803          	lw	a6,64(sp)
800001d0:	04412883          	lw	a7,68(sp)
800001d4:	04812903          	lw	s2,72(sp)
800001d8:	04c12983          	lw	s3,76(sp)
800001dc:	05012a03          	lw	s4,80(sp)
800001e0:	05412a83          	lw	s5,84(sp)
800001e4:	05812b03          	lw	s6,88(sp)
800001e8:	05c12b83          	lw	s7,92(sp)
800001ec:	06012c03          	lw	s8,96(sp)
800001f0:	06412c83          	lw	s9,100(sp)
800001f4:	06812d03          	lw	s10,104(sp)
800001f8:	06c12d83          	lw	s11,108(sp)
800001fc:	07012e03          	lw	t3,112(sp)
80000200:	07412e83          	lw	t4,116(sp)
80000204:	07812f03          	lw	t5,120(sp)
80000208:	07c12f83          	lw	t6,124(sp)
8000020c:	11010113          	addi	sp,sp,272
80000210:	30200073          	mret

Disassembly of section .text:

80002000 <cmp_idx>:
80002000:	02061e63          	bnez	a2,8000203c <cmp_idx+0x3c>
80002004:	00051783          	lh	a5,0(a0)
80002008:	01079713          	slli	a4,a5,0x10
8000200c:	01075713          	srli	a4,a4,0x10
80002010:	00875713          	srli	a4,a4,0x8
80002014:	f007f793          	andi	a5,a5,-256
80002018:	00e7e7b3          	or	a5,a5,a4
8000201c:	00f51023          	sh	a5,0(a0)
80002020:	00059783          	lh	a5,0(a1)
80002024:	01079713          	slli	a4,a5,0x10
80002028:	01075713          	srli	a4,a4,0x10
8000202c:	f007f793          	andi	a5,a5,-256
80002030:	00875713          	srli	a4,a4,0x8
80002034:	00e7e7b3          	or	a5,a5,a4
80002038:	00f59023          	sh	a5,0(a1)
8000203c:	00251503          	lh	a0,2(a0)
80002040:	00259783          	lh	a5,2(a1)
80002044:	40f50533          	sub	a0,a0,a5
80002048:	00008067          	ret

8000204c <calc_func>:
8000204c:	fe010113          	addi	sp,sp,-32
80002050:	01212823          	sw	s2,16(sp)
80002054:	00112e23          	sw	ra,28(sp)
80002058:	00812c23          	sw	s0,24(sp)
8000205c:	00912a23          	sw	s1,20(sp)
80002060:	01312623          	sw	s3,12(sp)
80002064:	00051403          	lh	s0,0(a0)
80002068:	40745793          	srai	a5,s0,0x7
8000206c:	0017f793          	andi	a5,a5,1
80002070:	07f47913          	andi	s2,s0,127
80002074:	08079263          	bnez	a5,800020f8 <calc_func+0xac>
80002078:	00058493          	mv	s1,a1
8000207c:	40345593          	srai	a1,s0,0x3
80002080:	00f5f593          	andi	a1,a1,15
80002084:	00459793          	slli	a5,a1,0x4
80002088:	00747713          	andi	a4,s0,7
8000208c:	00b7e5b3          	or	a1,a5,a1
80002090:	00050993          	mv	s3,a0
80002094:	0384d783          	lhu	a5,56(s1)
80002098:	08070063          	beqz	a4,80002118 <calc_func+0xcc>
8000209c:	00100693          	li	a3,1
800020a0:	02d71663          	bne	a4,a3,800020cc <calc_func+0x80>
800020a4:	00078613          	mv	a2,a5
800020a8:	02848513          	addi	a0,s1,40
800020ac:	290010ef          	jal	ra,8000333c <core_bench_matrix>
800020b0:	03c4d783          	lhu	a5,60(s1)
800020b4:	01051913          	slli	s2,a0,0x10
800020b8:	41095913          	srai	s2,s2,0x10
800020bc:	00079463          	bnez	a5,800020c4 <calc_func+0x78>
800020c0:	02a49e23          	sh	a0,60(s1)
800020c4:	0384d783          	lhu	a5,56(s1)
800020c8:	0080006f          	j	800020d0 <calc_func+0x84>
800020cc:	00040913          	mv	s2,s0
800020d0:	01091513          	slli	a0,s2,0x10
800020d4:	00078593          	mv	a1,a5
800020d8:	01055513          	srli	a0,a0,0x10
800020dc:	f0047413          	andi	s0,s0,-256
800020e0:	179010ef          	jal	ra,80003a58 <crcu16>
800020e4:	07f97913          	andi	s2,s2,127
800020e8:	08046413          	ori	s0,s0,128
800020ec:	02a49c23          	sh	a0,56(s1)
800020f0:	00896433          	or	s0,s2,s0
800020f4:	00899023          	sh	s0,0(s3)
800020f8:	01c12083          	lw	ra,28(sp)
800020fc:	01812403          	lw	s0,24(sp)
80002100:	00090513          	mv	a0,s2
80002104:	01412483          	lw	s1,20(sp)
80002108:	01012903          	lw	s2,16(sp)
8000210c:	00c12983          	lw	s3,12(sp)
80002110:	02010113          	addi	sp,sp,32
80002114:	00008067          	ret
80002118:	02200693          	li	a3,34
8000211c:	00058713          	mv	a4,a1
80002120:	00d5d463          	bge	a1,a3,80002128 <calc_func+0xdc>
80002124:	02200713          	li	a4,34
80002128:	00249683          	lh	a3,2(s1)
8000212c:	00049603          	lh	a2,0(s1)
80002130:	0144a583          	lw	a1,20(s1)
80002134:	0184a503          	lw	a0,24(s1)
80002138:	0ff77713          	andi	a4,a4,255
8000213c:	6a8010ef          	jal	ra,800037e4 <core_bench_state>
80002140:	03e4d783          	lhu	a5,62(s1)
80002144:	01051913          	slli	s2,a0,0x10
80002148:	41095913          	srai	s2,s2,0x10
8000214c:	f6079ce3          	bnez	a5,800020c4 <calc_func+0x78>
80002150:	02a49f23          	sh	a0,62(s1)
80002154:	0384d783          	lhu	a5,56(s1)
80002158:	f79ff06f          	j	800020d0 <calc_func+0x84>

8000215c <cmp_complex>:
8000215c:	ff010113          	addi	sp,sp,-16
80002160:	01212023          	sw	s2,0(sp)
80002164:	00058913          	mv	s2,a1
80002168:	00060593          	mv	a1,a2
8000216c:	00112623          	sw	ra,12(sp)
80002170:	00812423          	sw	s0,8(sp)
80002174:	00912223          	sw	s1,4(sp)
80002178:	00060413          	mv	s0,a2
8000217c:	ed1ff0ef          	jal	ra,8000204c <calc_func>
80002180:	00050493          	mv	s1,a0
80002184:	00040593          	mv	a1,s0
80002188:	00090513          	mv	a0,s2
8000218c:	ec1ff0ef          	jal	ra,8000204c <calc_func>
80002190:	00c12083          	lw	ra,12(sp)
80002194:	00812403          	lw	s0,8(sp)
80002198:	40a48533          	sub	a0,s1,a0
8000219c:	00012903          	lw	s2,0(sp)
800021a0:	00412483          	lw	s1,4(sp)
800021a4:	01010113          	addi	sp,sp,16
800021a8:	00008067          	ret

800021ac <copy_info>:
800021ac:	00059783          	lh	a5,0(a1)
800021b0:	00f51023          	sh	a5,0(a0)
800021b4:	00259783          	lh	a5,2(a1)
800021b8:	00f51123          	sh	a5,2(a0)
800021bc:	00008067          	ret

800021c0 <core_list_insert_new>:
800021c0:	00062803          	lw	a6,0(a2)
800021c4:	00880893          	addi	a7,a6,8
800021c8:	04e8f863          	bgeu	a7,a4,80002218 <core_list_insert_new+0x58>
800021cc:	0006a703          	lw	a4,0(a3)
800021d0:	00470713          	addi	a4,a4,4
800021d4:	04f77263          	bgeu	a4,a5,80002218 <core_list_insert_new+0x58>
800021d8:	01162023          	sw	a7,0(a2)
800021dc:	00052783          	lw	a5,0(a0)
800021e0:	00f82023          	sw	a5,0(a6)
800021e4:	01052023          	sw	a6,0(a0)
800021e8:	0006a783          	lw	a5,0(a3)
800021ec:	00080513          	mv	a0,a6
800021f0:	00f82223          	sw	a5,4(a6)
800021f4:	0006a783          	lw	a5,0(a3)
800021f8:	00478793          	addi	a5,a5,4
800021fc:	00f6a023          	sw	a5,0(a3)
80002200:	00059703          	lh	a4,0(a1)
80002204:	00482783          	lw	a5,4(a6)
80002208:	00e79023          	sh	a4,0(a5)
8000220c:	00259703          	lh	a4,2(a1)
80002210:	00e79123          	sh	a4,2(a5)
80002214:	00008067          	ret
80002218:	00000813          	li	a6,0
8000221c:	00080513          	mv	a0,a6
80002220:	00008067          	ret

80002224 <core_list_remove>:
80002224:	00052703          	lw	a4,0(a0)
80002228:	00452683          	lw	a3,4(a0)
8000222c:	00050793          	mv	a5,a0
80002230:	00472603          	lw	a2,4(a4)
80002234:	00070513          	mv	a0,a4
80002238:	00c7a223          	sw	a2,4(a5)
8000223c:	00d72223          	sw	a3,4(a4)
80002240:	0007a683          	lw	a3,0(a5)
80002244:	0006a683          	lw	a3,0(a3)
80002248:	00d7a023          	sw	a3,0(a5)
8000224c:	00072023          	sw	zero,0(a4)
80002250:	00008067          	ret

80002254 <core_list_undo_remove>:
80002254:	0045a703          	lw	a4,4(a1)
80002258:	00452683          	lw	a3,4(a0)
8000225c:	00e52223          	sw	a4,4(a0)
80002260:	0005a703          	lw	a4,0(a1)
80002264:	00d5a223          	sw	a3,4(a1)
80002268:	00e52023          	sw	a4,0(a0)
8000226c:	00a5a023          	sw	a0,0(a1)
80002270:	00008067          	ret

80002274 <core_list_find>:
80002274:	00259703          	lh	a4,2(a1)
80002278:	02074863          	bltz	a4,800022a8 <core_list_find+0x34>
8000227c:	02050463          	beqz	a0,800022a4 <core_list_find+0x30>
80002280:	00452783          	lw	a5,4(a0)
80002284:	00279783          	lh	a5,2(a5)
80002288:	00e79a63          	bne	a5,a4,8000229c <core_list_find+0x28>
8000228c:	0500006f          	j	800022dc <core_list_find+0x68>
80002290:	00452783          	lw	a5,4(a0)
80002294:	00279783          	lh	a5,2(a5)
80002298:	00e78663          	beq	a5,a4,800022a4 <core_list_find+0x30>
8000229c:	00052503          	lw	a0,0(a0)
800022a0:	fe0518e3          	bnez	a0,80002290 <core_list_find+0x1c>
800022a4:	00008067          	ret
800022a8:	fe050ee3          	beqz	a0,800022a4 <core_list_find+0x30>
800022ac:	00452783          	lw	a5,4(a0)
800022b0:	00059703          	lh	a4,0(a1)
800022b4:	0007c783          	lbu	a5,0(a5)
800022b8:	00e79a63          	bne	a5,a4,800022cc <core_list_find+0x58>
800022bc:	0240006f          	j	800022e0 <core_list_find+0x6c>
800022c0:	00452783          	lw	a5,4(a0)
800022c4:	0007c783          	lbu	a5,0(a5)
800022c8:	00e78863          	beq	a5,a4,800022d8 <core_list_find+0x64>
800022cc:	00052503          	lw	a0,0(a0)
800022d0:	fe0518e3          	bnez	a0,800022c0 <core_list_find+0x4c>
800022d4:	fd1ff06f          	j	800022a4 <core_list_find+0x30>
800022d8:	00008067          	ret
800022dc:	00008067          	ret
800022e0:	00008067          	ret

800022e4 <core_list_reverse>:
800022e4:	02050063          	beqz	a0,80002304 <core_list_reverse+0x20>
800022e8:	00000713          	li	a4,0
800022ec:	0080006f          	j	800022f4 <core_list_reverse+0x10>
800022f0:	00078513          	mv	a0,a5
800022f4:	00052783          	lw	a5,0(a0)
800022f8:	00e52023          	sw	a4,0(a0)
800022fc:	00050713          	mv	a4,a0
80002300:	fe0798e3          	bnez	a5,800022f0 <core_list_reverse+0xc>
80002304:	00008067          	ret

80002308 <core_list_mergesort>:
80002308:	fd010113          	addi	sp,sp,-48
8000230c:	01412c23          	sw	s4,24(sp)
80002310:	01512a23          	sw	s5,20(sp)
80002314:	01712623          	sw	s7,12(sp)
80002318:	01812423          	sw	s8,8(sp)
8000231c:	01a12023          	sw	s10,0(sp)
80002320:	02112623          	sw	ra,44(sp)
80002324:	02812423          	sw	s0,40(sp)
80002328:	02912223          	sw	s1,36(sp)
8000232c:	03212023          	sw	s2,32(sp)
80002330:	01312e23          	sw	s3,28(sp)
80002334:	01612823          	sw	s6,16(sp)
80002338:	01912223          	sw	s9,4(sp)
8000233c:	00050a13          	mv	s4,a0
80002340:	00058c13          	mv	s8,a1
80002344:	00060b93          	mv	s7,a2
80002348:	00100a93          	li	s5,1
8000234c:	00100d13          	li	s10,1
80002350:	0a0a0e63          	beqz	s4,8000240c <core_list_mergesort+0x104>
80002354:	00000c93          	li	s9,0
80002358:	00000913          	li	s2,0
8000235c:	00000b13          	li	s6,0
80002360:	001c8c93          	addi	s9,s9,1
80002364:	000a0413          	mv	s0,s4
80002368:	00000493          	li	s1,0
8000236c:	00042403          	lw	s0,0(s0)
80002370:	00148493          	addi	s1,s1,1
80002374:	00040463          	beqz	s0,8000237c <core_list_mergesort+0x74>
80002378:	fe9a9ae3          	bne	s5,s1,8000236c <core_list_mergesort+0x64>
8000237c:	000a8993          	mv	s3,s5
80002380:	02048e63          	beqz	s1,800023bc <core_list_mergesort+0xb4>
80002384:	04098e63          	beqz	s3,800023e0 <core_list_mergesort+0xd8>
80002388:	04040c63          	beqz	s0,800023e0 <core_list_mergesort+0xd8>
8000238c:	00442583          	lw	a1,4(s0)
80002390:	004a2503          	lw	a0,4(s4)
80002394:	000b8613          	mv	a2,s7
80002398:	000c00e7          	jalr	s8
8000239c:	04a05263          	blez	a0,800023e0 <core_list_mergesort+0xd8>
800023a0:	00040793          	mv	a5,s0
800023a4:	00042403          	lw	s0,0(s0)
800023a8:	fff98993          	addi	s3,s3,-1
800023ac:	02090463          	beqz	s2,800023d4 <core_list_mergesort+0xcc>
800023b0:	00f92023          	sw	a5,0(s2)
800023b4:	00078913          	mv	s2,a5
800023b8:	fc0496e3          	bnez	s1,80002384 <core_list_mergesort+0x7c>
800023bc:	02098a63          	beqz	s3,800023f0 <core_list_mergesort+0xe8>
800023c0:	02040c63          	beqz	s0,800023f8 <core_list_mergesort+0xf0>
800023c4:	00040793          	mv	a5,s0
800023c8:	fff98993          	addi	s3,s3,-1
800023cc:	00042403          	lw	s0,0(s0)
800023d0:	fe0910e3          	bnez	s2,800023b0 <core_list_mergesort+0xa8>
800023d4:	00078b13          	mv	s6,a5
800023d8:	00078913          	mv	s2,a5
800023dc:	fddff06f          	j	800023b8 <core_list_mergesort+0xb0>
800023e0:	000a0793          	mv	a5,s4
800023e4:	fff48493          	addi	s1,s1,-1
800023e8:	000a2a03          	lw	s4,0(s4)
800023ec:	fc1ff06f          	j	800023ac <core_list_mergesort+0xa4>
800023f0:	00040a13          	mv	s4,s0
800023f4:	f60416e3          	bnez	s0,80002360 <core_list_mergesort+0x58>
800023f8:	00092023          	sw	zero,0(s2)
800023fc:	01ac8c63          	beq	s9,s10,80002414 <core_list_mergesort+0x10c>
80002400:	001a9a93          	slli	s5,s5,0x1
80002404:	000b0a13          	mv	s4,s6
80002408:	f49ff06f          	j	80002350 <core_list_mergesort+0x48>
8000240c:	00002023          	sw	zero,0(zero) # 0 <_start-0x80000000>
80002410:	00100073          	ebreak
80002414:	02c12083          	lw	ra,44(sp)
80002418:	02812403          	lw	s0,40(sp)
8000241c:	000b0513          	mv	a0,s6
80002420:	02412483          	lw	s1,36(sp)
80002424:	02012903          	lw	s2,32(sp)
80002428:	01c12983          	lw	s3,28(sp)
8000242c:	01812a03          	lw	s4,24(sp)
80002430:	01412a83          	lw	s5,20(sp)
80002434:	01012b03          	lw	s6,16(sp)
80002438:	00c12b83          	lw	s7,12(sp)
8000243c:	00812c03          	lw	s8,8(sp)
80002440:	00412c83          	lw	s9,4(sp)
80002444:	00012d03          	lw	s10,0(sp)
80002448:	03010113          	addi	sp,sp,48
8000244c:	00008067          	ret

80002450 <core_bench_list>:
80002450:	fc010113          	addi	sp,sp,-64
80002454:	03512223          	sw	s5,36(sp)
80002458:	03612023          	sw	s6,32(sp)
8000245c:	02112e23          	sw	ra,60(sp)
80002460:	02812c23          	sw	s0,56(sp)
80002464:	02912a23          	sw	s1,52(sp)
80002468:	03212823          	sw	s2,48(sp)
8000246c:	03312623          	sw	s3,44(sp)
80002470:	03412423          	sw	s4,40(sp)
80002474:	01712e23          	sw	s7,28(sp)
80002478:	01812c23          	sw	s8,24(sp)
8000247c:	00451c03          	lh	s8,4(a0)
80002480:	00b11723          	sh	a1,14(sp)
80002484:	00050a93          	mv	s5,a0
80002488:	00058b13          	mv	s6,a1
8000248c:	02452403          	lw	s0,36(a0)
80002490:	21805663          	blez	s8,8000269c <core_bench_list+0x24c>
80002494:	00000913          	li	s2,0
80002498:	00000b93          	li	s7,0
8000249c:	00000993          	li	s3,0
800024a0:	00000493          	li	s1,0
800024a4:	00c10a13          	addi	s4,sp,12
800024a8:	0ff97793          	andi	a5,s2,255
800024ac:	000a0593          	mv	a1,s4
800024b0:	00040513          	mv	a0,s0
800024b4:	00f11623          	sh	a5,12(sp)
800024b8:	dbdff0ef          	jal	ra,80002274 <core_list_find>
800024bc:	02040063          	beqz	s0,800024dc <core_bench_list+0x8c>
800024c0:	00000713          	li	a4,0
800024c4:	0080006f          	j	800024cc <core_bench_list+0x7c>
800024c8:	00078413          	mv	s0,a5
800024cc:	00042783          	lw	a5,0(s0)
800024d0:	00e42023          	sw	a4,0(s0)
800024d4:	00040713          	mv	a4,s0
800024d8:	fe0798e3          	bnez	a5,800024c8 <core_bench_list+0x78>
800024dc:	18050463          	beqz	a0,80002664 <core_bench_list+0x214>
800024e0:	00452783          	lw	a5,4(a0)
800024e4:	00198993          	addi	s3,s3,1
800024e8:	01099993          	slli	s3,s3,0x10
800024ec:	00079783          	lh	a5,0(a5)
800024f0:	0109d993          	srli	s3,s3,0x10
800024f4:	0017f713          	andi	a4,a5,1
800024f8:	00070c63          	beqz	a4,80002510 <core_bench_list+0xc0>
800024fc:	4097d793          	srai	a5,a5,0x9
80002500:	0017f793          	andi	a5,a5,1
80002504:	00f484b3          	add	s1,s1,a5
80002508:	01049493          	slli	s1,s1,0x10
8000250c:	0104d493          	srli	s1,s1,0x10
80002510:	00052783          	lw	a5,0(a0)
80002514:	00078c63          	beqz	a5,8000252c <core_bench_list+0xdc>
80002518:	0007a703          	lw	a4,0(a5)
8000251c:	00e52023          	sw	a4,0(a0)
80002520:	00042703          	lw	a4,0(s0)
80002524:	00e7a023          	sw	a4,0(a5)
80002528:	00f42023          	sw	a5,0(s0)
8000252c:	00e11783          	lh	a5,14(sp)
80002530:	0007c663          	bltz	a5,8000253c <core_bench_list+0xec>
80002534:	00178793          	addi	a5,a5,1
80002538:	00f11723          	sh	a5,14(sp)
8000253c:	00190913          	addi	s2,s2,1
80002540:	01091913          	slli	s2,s2,0x10
80002544:	41095913          	srai	s2,s2,0x10
80002548:	f72c10e3          	bne	s8,s2,800024a8 <core_bench_list+0x58>
8000254c:	00299993          	slli	s3,s3,0x2
80002550:	41798bb3          	sub	s7,s3,s7
80002554:	017484b3          	add	s1,s1,s7
80002558:	01049493          	slli	s1,s1,0x10
8000255c:	0104d493          	srli	s1,s1,0x10
80002560:	01605e63          	blez	s6,8000257c <core_bench_list+0x12c>
80002564:	00040513          	mv	a0,s0
80002568:	000a8613          	mv	a2,s5
8000256c:	00000597          	auipc	a1,0x0
80002570:	bf058593          	addi	a1,a1,-1040 # 8000215c <cmp_complex>
80002574:	d95ff0ef          	jal	ra,80002308 <core_list_mergesort>
80002578:	00050413          	mv	s0,a0
8000257c:	00042783          	lw	a5,0(s0)
80002580:	000a0593          	mv	a1,s4
80002584:	00040513          	mv	a0,s0
80002588:	0007a983          	lw	s3,0(a5)
8000258c:	0047a703          	lw	a4,4(a5)
80002590:	0049a683          	lw	a3,4(s3)
80002594:	00d7a223          	sw	a3,4(a5)
80002598:	00e9a223          	sw	a4,4(s3)
8000259c:	0007a703          	lw	a4,0(a5)
800025a0:	00072703          	lw	a4,0(a4)
800025a4:	00e7a023          	sw	a4,0(a5)
800025a8:	0009a023          	sw	zero,0(s3)
800025ac:	cc9ff0ef          	jal	ra,80002274 <core_list_find>
800025b0:	00050913          	mv	s2,a0
800025b4:	0c050e63          	beqz	a0,80002690 <core_bench_list+0x240>
800025b8:	00442783          	lw	a5,4(s0)
800025bc:	00048593          	mv	a1,s1
800025c0:	00079503          	lh	a0,0(a5)
800025c4:	548010ef          	jal	ra,80003b0c <crc16>
800025c8:	00092903          	lw	s2,0(s2)
800025cc:	00050493          	mv	s1,a0
800025d0:	fe0914e3          	bnez	s2,800025b8 <core_bench_list+0x168>
800025d4:	00042903          	lw	s2,0(s0)
800025d8:	00492783          	lw	a5,4(s2)
800025dc:	0049a703          	lw	a4,4(s3)
800025e0:	00040513          	mv	a0,s0
800025e4:	00f9a223          	sw	a5,4(s3)
800025e8:	00092783          	lw	a5,0(s2)
800025ec:	00e92223          	sw	a4,4(s2)
800025f0:	00000613          	li	a2,0
800025f4:	00f9a023          	sw	a5,0(s3)
800025f8:	01392023          	sw	s3,0(s2)
800025fc:	00000597          	auipc	a1,0x0
80002600:	a0458593          	addi	a1,a1,-1532 # 80002000 <cmp_idx>
80002604:	d05ff0ef          	jal	ra,80002308 <core_list_mergesort>
80002608:	00052403          	lw	s0,0(a0)
8000260c:	00050913          	mv	s2,a0
80002610:	02040063          	beqz	s0,80002630 <core_bench_list+0x1e0>
80002614:	00492783          	lw	a5,4(s2)
80002618:	00048593          	mv	a1,s1
8000261c:	00079503          	lh	a0,0(a5)
80002620:	4ec010ef          	jal	ra,80003b0c <crc16>
80002624:	00042403          	lw	s0,0(s0)
80002628:	00050493          	mv	s1,a0
8000262c:	fe0414e3          	bnez	s0,80002614 <core_bench_list+0x1c4>
80002630:	03c12083          	lw	ra,60(sp)
80002634:	03812403          	lw	s0,56(sp)
80002638:	00048513          	mv	a0,s1
8000263c:	03012903          	lw	s2,48(sp)
80002640:	03412483          	lw	s1,52(sp)
80002644:	02c12983          	lw	s3,44(sp)
80002648:	02812a03          	lw	s4,40(sp)
8000264c:	02412a83          	lw	s5,36(sp)
80002650:	02012b03          	lw	s6,32(sp)
80002654:	01c12b83          	lw	s7,28(sp)
80002658:	01812c03          	lw	s8,24(sp)
8000265c:	04010113          	addi	sp,sp,64
80002660:	00008067          	ret
80002664:	00042783          	lw	a5,0(s0)
80002668:	001b8b93          	addi	s7,s7,1
8000266c:	010b9b93          	slli	s7,s7,0x10
80002670:	0047a783          	lw	a5,4(a5)
80002674:	010bdb93          	srli	s7,s7,0x10
80002678:	00178783          	lb	a5,1(a5)
8000267c:	0017f793          	andi	a5,a5,1
80002680:	00f484b3          	add	s1,s1,a5
80002684:	01049493          	slli	s1,s1,0x10
80002688:	0104d493          	srli	s1,s1,0x10
8000268c:	ea1ff06f          	j	8000252c <core_bench_list+0xdc>
80002690:	00042903          	lw	s2,0(s0)
80002694:	f40902e3          	beqz	s2,800025d8 <core_bench_list+0x188>
80002698:	f21ff06f          	j	800025b8 <core_bench_list+0x168>
8000269c:	00000493          	li	s1,0
800026a0:	00c10a13          	addi	s4,sp,12
800026a4:	ebdff06f          	j	80002560 <core_bench_list+0x110>

800026a8 <core_list_init>:
800026a8:	ff010113          	addi	sp,sp,-16
800026ac:	00912223          	sw	s1,4(sp)
800026b0:	00058493          	mv	s1,a1
800026b4:	01400593          	li	a1,20
800026b8:	01212023          	sw	s2,0(sp)
800026bc:	00112623          	sw	ra,12(sp)
800026c0:	00060913          	mv	s2,a2
800026c4:	00812423          	sw	s0,8(sp)
800026c8:	568010ef          	jal	ra,80003c30 <__udivsi3>
800026cc:	ffe50513          	addi	a0,a0,-2
800026d0:	00351693          	slli	a3,a0,0x3
800026d4:	00d486b3          	add	a3,s1,a3
800026d8:	00d4a223          	sw	a3,4(s1)
800026dc:	0004a023          	sw	zero,0(s1)
800026e0:	00069123          	sh	zero,2(a3)
800026e4:	0044a703          	lw	a4,4(s1)
800026e8:	ffff87b7          	lui	a5,0xffff8
800026ec:	08078613          	addi	a2,a5,128 # ffff8080 <__global_pointer$+0x7fff2874>
800026f0:	00251e13          	slli	t3,a0,0x2
800026f4:	00c71023          	sh	a2,0(a4)
800026f8:	01048713          	addi	a4,s1,16
800026fc:	01c68e33          	add	t3,a3,t3
80002700:	00848813          	addi	a6,s1,8
80002704:	00468893          	addi	a7,a3,4
80002708:	12d76063          	bltu	a4,a3,80002828 <core_list_init+0x180>
8000270c:	0004a403          	lw	s0,0(s1)
80002710:	06050a63          	beqz	a0,80002784 <core_list_init+0xdc>
80002714:	01091f13          	slli	t5,s2,0x10
80002718:	ffff8eb7          	lui	t4,0xffff8
8000271c:	010f5f13          	srli	t5,t5,0x10
80002720:	00000713          	li	a4,0
80002724:	fffece93          	not	t4,t4
80002728:	00880313          	addi	t1,a6,8
8000272c:	00488613          	addi	a2,a7,4
80002730:	04d37663          	bgeu	t1,a3,8000277c <core_list_init+0xd4>
80002734:	01071593          	slli	a1,a4,0x10
80002738:	0105d593          	srli	a1,a1,0x10
8000273c:	01e5c7b3          	xor	a5,a1,t5
80002740:	00379793          	slli	a5,a5,0x3
80002744:	0075f593          	andi	a1,a1,7
80002748:	0787f793          	andi	a5,a5,120
8000274c:	00b7e7b3          	or	a5,a5,a1
80002750:	00879593          	slli	a1,a5,0x8
80002754:	00f5e7b3          	or	a5,a1,a5
80002758:	03c67263          	bgeu	a2,t3,8000277c <core_list_init+0xd4>
8000275c:	00882023          	sw	s0,0(a6)
80002760:	0104a023          	sw	a6,0(s1)
80002764:	01182223          	sw	a7,4(a6)
80002768:	00f89023          	sh	a5,0(a7)
8000276c:	01d89123          	sh	t4,2(a7)
80002770:	0004a403          	lw	s0,0(s1)
80002774:	00060893          	mv	a7,a2
80002778:	00030813          	mv	a6,t1
8000277c:	00170713          	addi	a4,a4,1
80002780:	fae514e3          	bne	a0,a4,80002728 <core_list_init+0x80>
80002784:	00042783          	lw	a5,0(s0)
80002788:	06078c63          	beqz	a5,80002800 <core_list_init+0x158>
8000278c:	00500593          	li	a1,5
80002790:	4a0010ef          	jal	ra,80003c30 <__udivsi3>
80002794:	00004637          	lui	a2,0x4
80002798:	20000713          	li	a4,512
8000279c:	00100693          	li	a3,1
800027a0:	fff60613          	addi	a2,a2,-1 # 3fff <_start-0x7fffc001>
800027a4:	0240006f          	j	800027c8 <core_list_init+0x120>
800027a8:	00d59123          	sh	a3,2(a1)
800027ac:	00042403          	lw	s0,0(s0)
800027b0:	10070713          	addi	a4,a4,256
800027b4:	01071713          	slli	a4,a4,0x10
800027b8:	00042783          	lw	a5,0(s0)
800027bc:	00168693          	addi	a3,a3,1
800027c0:	01075713          	srli	a4,a4,0x10
800027c4:	02078e63          	beqz	a5,80002800 <core_list_init+0x158>
800027c8:	0126c5b3          	xor	a1,a3,s2
800027cc:	70077793          	andi	a5,a4,1792
800027d0:	00b7e7b3          	or	a5,a5,a1
800027d4:	00c7f7b3          	and	a5,a5,a2
800027d8:	00442583          	lw	a1,4(s0)
800027dc:	fca6e6e3          	bltu	a3,a0,800027a8 <core_list_init+0x100>
800027e0:	00f59123          	sh	a5,2(a1)
800027e4:	00042403          	lw	s0,0(s0)
800027e8:	10070713          	addi	a4,a4,256
800027ec:	01071713          	slli	a4,a4,0x10
800027f0:	00042783          	lw	a5,0(s0)
800027f4:	00168693          	addi	a3,a3,1
800027f8:	01075713          	srli	a4,a4,0x10
800027fc:	fc0796e3          	bnez	a5,800027c8 <core_list_init+0x120>
80002800:	00812403          	lw	s0,8(sp)
80002804:	00c12083          	lw	ra,12(sp)
80002808:	00012903          	lw	s2,0(sp)
8000280c:	00048513          	mv	a0,s1
80002810:	00412483          	lw	s1,4(sp)
80002814:	00000613          	li	a2,0
80002818:	fffff597          	auipc	a1,0xfffff
8000281c:	7e858593          	addi	a1,a1,2024 # 80002000 <cmp_idx>
80002820:	01010113          	addi	sp,sp,16
80002824:	ae5ff06f          	j	80002308 <core_list_mergesort>
80002828:	00868613          	addi	a2,a3,8
8000282c:	0004a403          	lw	s0,0(s1)
80002830:	efc670e3          	bgeu	a2,t3,80002710 <core_list_init+0x68>
80002834:	0104a023          	sw	a6,0(s1)
80002838:	0084a423          	sw	s0,8(s1)
8000283c:	0114a623          	sw	a7,12(s1)
80002840:	fff7c793          	not	a5,a5
80002844:	fff00593          	li	a1,-1
80002848:	00b69223          	sh	a1,4(a3)
8000284c:	00f69323          	sh	a5,6(a3)
80002850:	0004a403          	lw	s0,0(s1)
80002854:	00060893          	mv	a7,a2
80002858:	00070813          	mv	a6,a4
8000285c:	eb5ff06f          	j	80002710 <core_list_init+0x68>

80002860 <iterate>:
80002860:	ff010113          	addi	sp,sp,-16
80002864:	00112623          	sw	ra,12(sp)
80002868:	00812423          	sw	s0,8(sp)
8000286c:	00912223          	sw	s1,4(sp)
80002870:	01212023          	sw	s2,0(sp)
80002874:	01c52903          	lw	s2,28(a0)
80002878:	02052c23          	sw	zero,56(a0)
8000287c:	02052e23          	sw	zero,60(a0)
80002880:	04090463          	beqz	s2,800028c8 <iterate+0x68>
80002884:	00050413          	mv	s0,a0
80002888:	00000493          	li	s1,0
8000288c:	00100593          	li	a1,1
80002890:	00040513          	mv	a0,s0
80002894:	bbdff0ef          	jal	ra,80002450 <core_bench_list>
80002898:	03845583          	lhu	a1,56(s0)
8000289c:	1bc010ef          	jal	ra,80003a58 <crcu16>
800028a0:	02a41c23          	sh	a0,56(s0)
800028a4:	fff00593          	li	a1,-1
800028a8:	00040513          	mv	a0,s0
800028ac:	ba5ff0ef          	jal	ra,80002450 <core_bench_list>
800028b0:	03845583          	lhu	a1,56(s0)
800028b4:	1a4010ef          	jal	ra,80003a58 <crcu16>
800028b8:	02a41c23          	sh	a0,56(s0)
800028bc:	02048463          	beqz	s1,800028e4 <iterate+0x84>
800028c0:	00148493          	addi	s1,s1,1
800028c4:	fc9914e3          	bne	s2,s1,8000288c <iterate+0x2c>
800028c8:	00c12083          	lw	ra,12(sp)
800028cc:	00812403          	lw	s0,8(sp)
800028d0:	00412483          	lw	s1,4(sp)
800028d4:	00012903          	lw	s2,0(sp)
800028d8:	00000513          	li	a0,0
800028dc:	01010113          	addi	sp,sp,16
800028e0:	00008067          	ret
800028e4:	02a41d23          	sh	a0,58(s0)
800028e8:	fd9ff06f          	j	800028c0 <iterate+0x60>

800028ec <core_init_matrix>:
800028ec:	fb010113          	addi	sp,sp,-80
800028f0:	04812423          	sw	s0,72(sp)
800028f4:	03312e23          	sw	s3,60(sp)
800028f8:	03912223          	sw	s9,36(sp)
800028fc:	04112623          	sw	ra,76(sp)
80002900:	04912223          	sw	s1,68(sp)
80002904:	05212023          	sw	s2,64(sp)
80002908:	03412c23          	sw	s4,56(sp)
8000290c:	03512a23          	sw	s5,52(sp)
80002910:	03612823          	sw	s6,48(sp)
80002914:	03712623          	sw	s7,44(sp)
80002918:	03812423          	sw	s8,40(sp)
8000291c:	03a12023          	sw	s10,32(sp)
80002920:	01b12e23          	sw	s11,28(sp)
80002924:	00050993          	mv	s3,a0
80002928:	00068c93          	mv	s9,a3
8000292c:	00060413          	mv	s0,a2
80002930:	00061463          	bnez	a2,80002938 <core_init_matrix+0x4c>
80002934:	00100413          	li	s0,1
80002938:	fff58b13          	addi	s6,a1,-1
8000293c:	ffcb7b13          	andi	s6,s6,-4
80002940:	004b0d13          	addi	s10,s6,4
80002944:	00000493          	li	s1,0
80002948:	00099663          	bnez	s3,80002954 <core_init_matrix+0x68>
8000294c:	13c0006f          	j	80002a88 <core_init_matrix+0x19c>
80002950:	00090493          	mv	s1,s2
80002954:	00148913          	addi	s2,s1,1
80002958:	00090593          	mv	a1,s2
8000295c:	00090513          	mv	a0,s2
80002960:	2a4010ef          	jal	ra,80003c04 <__mulsi3>
80002964:	00351513          	slli	a0,a0,0x3
80002968:	ff3564e3          	bltu	a0,s3,80002950 <core_init_matrix+0x64>
8000296c:	00048593          	mv	a1,s1
80002970:	00048513          	mv	a0,s1
80002974:	290010ef          	jal	ra,80003c04 <__mulsi3>
80002978:	00151793          	slli	a5,a0,0x1
8000297c:	00f12623          	sw	a5,12(sp)
80002980:	00912423          	sw	s1,8(sp)
80002984:	00fd0b33          	add	s6,s10,a5
80002988:	08048c63          	beqz	s1,80002a20 <core_init_matrix+0x134>
8000298c:	000109b7          	lui	s3,0x10
80002990:	00000a93          	li	s5,0
80002994:	00100913          	li	s2,1
80002998:	416d0a33          	sub	s4,s10,s6
8000299c:	00149c13          	slli	s8,s1,0x1
800029a0:	fff98993          	addi	s3,s3,-1 # ffff <_start-0x7fff0001>
800029a4:	000a8593          	mv	a1,s5
800029a8:	000c0513          	mv	a0,s8
800029ac:	258010ef          	jal	ra,80003c04 <__mulsi3>
800029b0:	00ab0bb3          	add	s7,s6,a0
800029b4:	00090d93          	mv	s11,s2
800029b8:	000d8593          	mv	a1,s11
800029bc:	00040513          	mv	a0,s0
800029c0:	244010ef          	jal	ra,80003c04 <__mulsi3>
800029c4:	41f55613          	srai	a2,a0,0x1f
800029c8:	01065613          	srli	a2,a2,0x10
800029cc:	00c50433          	add	s0,a0,a2
800029d0:	010d9793          	slli	a5,s11,0x10
800029d4:	01347433          	and	s0,s0,s3
800029d8:	0107d793          	srli	a5,a5,0x10
800029dc:	40c40433          	sub	s0,s0,a2
800029e0:	008786b3          	add	a3,a5,s0
800029e4:	01069693          	slli	a3,a3,0x10
800029e8:	0106d693          	srli	a3,a3,0x10
800029ec:	00d787b3          	add	a5,a5,a3
800029f0:	00db9023          	sh	a3,0(s7)
800029f4:	0ff7f793          	andi	a5,a5,255
800029f8:	017a06b3          	add	a3,s4,s7
800029fc:	001d8d93          	addi	s11,s11,1
80002a00:	00f69023          	sh	a5,0(a3)
80002a04:	412d87b3          	sub	a5,s11,s2
80002a08:	002b8b93          	addi	s7,s7,2
80002a0c:	fa97e6e3          	bltu	a5,s1,800029b8 <core_init_matrix+0xcc>
80002a10:	001a8a93          	addi	s5,s5,1
80002a14:	009af663          	bgeu	s5,s1,80002a20 <core_init_matrix+0x134>
80002a18:	000d8913          	mv	s2,s11
80002a1c:	f89ff06f          	j	800029a4 <core_init_matrix+0xb8>
80002a20:	00c12783          	lw	a5,12(sp)
80002a24:	01aca223          	sw	s10,4(s9)
80002a28:	016ca423          	sw	s6,8(s9)
80002a2c:	00fb07b3          	add	a5,s6,a5
80002a30:	fff78793          	addi	a5,a5,-1
80002a34:	ffc7f793          	andi	a5,a5,-4
80002a38:	00478793          	addi	a5,a5,4
80002a3c:	00fca623          	sw	a5,12(s9)
80002a40:	00812783          	lw	a5,8(sp)
80002a44:	00048513          	mv	a0,s1
80002a48:	00fca023          	sw	a5,0(s9)
80002a4c:	04c12083          	lw	ra,76(sp)
80002a50:	04812403          	lw	s0,72(sp)
80002a54:	04412483          	lw	s1,68(sp)
80002a58:	04012903          	lw	s2,64(sp)
80002a5c:	03c12983          	lw	s3,60(sp)
80002a60:	03812a03          	lw	s4,56(sp)
80002a64:	03412a83          	lw	s5,52(sp)
80002a68:	03012b03          	lw	s6,48(sp)
80002a6c:	02c12b83          	lw	s7,44(sp)
80002a70:	02812c03          	lw	s8,40(sp)
80002a74:	02412c83          	lw	s9,36(sp)
80002a78:	02012d03          	lw	s10,32(sp)
80002a7c:	01c12d83          	lw	s11,28(sp)
80002a80:	05010113          	addi	sp,sp,80
80002a84:	00008067          	ret
80002a88:	fff00793          	li	a5,-1
80002a8c:	00f12423          	sw	a5,8(sp)
80002a90:	00200793          	li	a5,2
80002a94:	006b0b13          	addi	s6,s6,6
80002a98:	fff00493          	li	s1,-1
80002a9c:	00f12623          	sw	a5,12(sp)
80002aa0:	eedff06f          	j	8000298c <core_init_matrix+0xa0>

80002aa4 <matrix_sum>:
80002aa4:	08050a63          	beqz	a0,80002b38 <matrix_sum+0x94>
80002aa8:	40a00f33          	neg	t5,a0
80002aac:	00251793          	slli	a5,a0,0x2
80002ab0:	00f585b3          	add	a1,a1,a5
80002ab4:	002f1f93          	slli	t6,t5,0x2
80002ab8:	00000e13          	li	t3,0
80002abc:	00000793          	li	a5,0
80002ac0:	00000693          	li	a3,0
80002ac4:	00000893          	li	a7,0
80002ac8:	003f1f13          	slli	t5,t5,0x3
80002acc:	00bf8eb3          	add	t4,t6,a1
80002ad0:	000e8713          	mv	a4,t4
80002ad4:	01c0006f          	j	80002af0 <matrix_sum+0x4c>
80002ad8:	01031793          	slli	a5,t1,0x10
80002adc:	00470713          	addi	a4,a4,4
80002ae0:	4107d793          	srai	a5,a5,0x10
80002ae4:	00000893          	li	a7,0
80002ae8:	00080693          	mv	a3,a6
80002aec:	02e58c63          	beq	a1,a4,80002b24 <matrix_sum+0x80>
80002af0:	00072803          	lw	a6,0(a4)
80002af4:	01079793          	slli	a5,a5,0x10
80002af8:	0107d793          	srli	a5,a5,0x10
80002afc:	0106a6b3          	slt	a3,a3,a6
80002b00:	010888b3          	add	a7,a7,a6
80002b04:	00a78313          	addi	t1,a5,10
80002b08:	00d787b3          	add	a5,a5,a3
80002b0c:	fd1646e3          	blt	a2,a7,80002ad8 <matrix_sum+0x34>
80002b10:	01079793          	slli	a5,a5,0x10
80002b14:	00470713          	addi	a4,a4,4
80002b18:	4107d793          	srai	a5,a5,0x10
80002b1c:	00080693          	mv	a3,a6
80002b20:	fce598e3          	bne	a1,a4,80002af0 <matrix_sum+0x4c>
80002b24:	001e0e13          	addi	t3,t3,1
80002b28:	41ee85b3          	sub	a1,t4,t5
80002b2c:	fbc510e3          	bne	a0,t3,80002acc <matrix_sum+0x28>
80002b30:	00078513          	mv	a0,a5
80002b34:	00008067          	ret
80002b38:	00000793          	li	a5,0
80002b3c:	00078513          	mv	a0,a5
80002b40:	00008067          	ret

80002b44 <matrix_mul_const>:
80002b44:	0a050663          	beqz	a0,80002bf0 <matrix_mul_const+0xac>
80002b48:	fd010113          	addi	sp,sp,-48
80002b4c:	02812423          	sw	s0,40(sp)
80002b50:	01312e23          	sw	s3,28(sp)
80002b54:	01412c23          	sw	s4,24(sp)
80002b58:	01512a23          	sw	s5,20(sp)
80002b5c:	01612823          	sw	s6,16(sp)
80002b60:	01712623          	sw	s7,12(sp)
80002b64:	01812423          	sw	s8,8(sp)
80002b68:	02112623          	sw	ra,44(sp)
80002b6c:	02912223          	sw	s1,36(sp)
80002b70:	03212023          	sw	s2,32(sp)
80002b74:	00068993          	mv	s3,a3
80002b78:	00050b13          	mv	s6,a0
80002b7c:	00151c13          	slli	s8,a0,0x1
80002b80:	00060413          	mv	s0,a2
80002b84:	00251b93          	slli	s7,a0,0x2
80002b88:	00058a13          	mv	s4,a1
80002b8c:	00000a93          	li	s5,0
80002b90:	008c0933          	add	s2,s8,s0
80002b94:	000a0493          	mv	s1,s4
80002b98:	00041503          	lh	a0,0(s0)
80002b9c:	00098593          	mv	a1,s3
80002ba0:	00240413          	addi	s0,s0,2
80002ba4:	060010ef          	jal	ra,80003c04 <__mulsi3>
80002ba8:	00a4a023          	sw	a0,0(s1)
80002bac:	00448493          	addi	s1,s1,4
80002bb0:	ff2414e3          	bne	s0,s2,80002b98 <matrix_mul_const+0x54>
80002bb4:	001a8a93          	addi	s5,s5,1
80002bb8:	017a0a33          	add	s4,s4,s7
80002bbc:	fd5b1ae3          	bne	s6,s5,80002b90 <matrix_mul_const+0x4c>
80002bc0:	02c12083          	lw	ra,44(sp)
80002bc4:	02812403          	lw	s0,40(sp)
80002bc8:	02412483          	lw	s1,36(sp)
80002bcc:	02012903          	lw	s2,32(sp)
80002bd0:	01c12983          	lw	s3,28(sp)
80002bd4:	01812a03          	lw	s4,24(sp)
80002bd8:	01412a83          	lw	s5,20(sp)
80002bdc:	01012b03          	lw	s6,16(sp)
80002be0:	00c12b83          	lw	s7,12(sp)
80002be4:	00812c03          	lw	s8,8(sp)
80002be8:	03010113          	addi	sp,sp,48
80002bec:	00008067          	ret
80002bf0:	00008067          	ret

80002bf4 <matrix_add_const>:
80002bf4:	02050a63          	beqz	a0,80002c28 <matrix_add_const+0x34>
80002bf8:	01061613          	slli	a2,a2,0x10
80002bfc:	01065613          	srli	a2,a2,0x10
80002c00:	00151813          	slli	a6,a0,0x1
80002c04:	00000693          	li	a3,0
80002c08:	00b80733          	add	a4,a6,a1
80002c0c:	0005d783          	lhu	a5,0(a1)
80002c10:	00258593          	addi	a1,a1,2
80002c14:	00f607b3          	add	a5,a2,a5
80002c18:	fef59f23          	sh	a5,-2(a1)
80002c1c:	feb718e3          	bne	a4,a1,80002c0c <matrix_add_const+0x18>
80002c20:	00168693          	addi	a3,a3,1
80002c24:	fed512e3          	bne	a0,a3,80002c08 <matrix_add_const+0x14>
80002c28:	00008067          	ret

80002c2c <matrix_mul_vect>:
80002c2c:	0a050c63          	beqz	a0,80002ce4 <matrix_mul_vect+0xb8>
80002c30:	fd010113          	addi	sp,sp,-48
80002c34:	01812423          	sw	s8,8(sp)
80002c38:	00151c13          	slli	s8,a0,0x1
80002c3c:	00251513          	slli	a0,a0,0x2
80002c40:	01312e23          	sw	s3,28(sp)
80002c44:	01412c23          	sw	s4,24(sp)
80002c48:	01512a23          	sw	s5,20(sp)
80002c4c:	01612823          	sw	s6,16(sp)
80002c50:	01712623          	sw	s7,12(sp)
80002c54:	02112623          	sw	ra,44(sp)
80002c58:	02812423          	sw	s0,40(sp)
80002c5c:	02912223          	sw	s1,36(sp)
80002c60:	03212023          	sw	s2,32(sp)
80002c64:	00068b93          	mv	s7,a3
80002c68:	00058993          	mv	s3,a1
80002c6c:	00060a93          	mv	s5,a2
80002c70:	00a58b33          	add	s6,a1,a0
80002c74:	01868a33          	add	s4,a3,s8
80002c78:	0009a023          	sw	zero,0(s3)
80002c7c:	000b8413          	mv	s0,s7
80002c80:	000a8913          	mv	s2,s5
80002c84:	00000493          	li	s1,0
80002c88:	00041583          	lh	a1,0(s0)
80002c8c:	00091503          	lh	a0,0(s2)
80002c90:	00240413          	addi	s0,s0,2
80002c94:	00290913          	addi	s2,s2,2
80002c98:	76d000ef          	jal	ra,80003c04 <__mulsi3>
80002c9c:	00a484b3          	add	s1,s1,a0
80002ca0:	0099a023          	sw	s1,0(s3)
80002ca4:	fe8a12e3          	bne	s4,s0,80002c88 <matrix_mul_vect+0x5c>
80002ca8:	00498993          	addi	s3,s3,4
80002cac:	018a8ab3          	add	s5,s5,s8
80002cb0:	fd6994e3          	bne	s3,s6,80002c78 <matrix_mul_vect+0x4c>
80002cb4:	02c12083          	lw	ra,44(sp)
80002cb8:	02812403          	lw	s0,40(sp)
80002cbc:	02412483          	lw	s1,36(sp)
80002cc0:	02012903          	lw	s2,32(sp)
80002cc4:	01c12983          	lw	s3,28(sp)
80002cc8:	01812a03          	lw	s4,24(sp)
80002ccc:	01412a83          	lw	s5,20(sp)
80002cd0:	01012b03          	lw	s6,16(sp)
80002cd4:	00c12b83          	lw	s7,12(sp)
80002cd8:	00812c03          	lw	s8,8(sp)
80002cdc:	03010113          	addi	sp,sp,48
80002ce0:	00008067          	ret
80002ce4:	00008067          	ret

80002ce8 <matrix_mul_matrix>:
80002ce8:	0e050e63          	beqz	a0,80002de4 <matrix_mul_matrix+0xfc>
80002cec:	fb010113          	addi	sp,sp,-80
80002cf0:	05212023          	sw	s2,64(sp)
80002cf4:	00251793          	slli	a5,a0,0x2
80002cf8:	00151913          	slli	s2,a0,0x1
80002cfc:	03312e23          	sw	s3,60(sp)
80002d00:	03512a23          	sw	s5,52(sp)
80002d04:	03612823          	sw	s6,48(sp)
80002d08:	03712623          	sw	s7,44(sp)
80002d0c:	03812423          	sw	s8,40(sp)
80002d10:	03912223          	sw	s9,36(sp)
80002d14:	04112623          	sw	ra,76(sp)
80002d18:	04812423          	sw	s0,72(sp)
80002d1c:	04912223          	sw	s1,68(sp)
80002d20:	03412c23          	sw	s4,56(sp)
80002d24:	03a12023          	sw	s10,32(sp)
80002d28:	01b12e23          	sw	s11,28(sp)
80002d2c:	00d12623          	sw	a3,12(sp)
80002d30:	00050c93          	mv	s9,a0
80002d34:	00060a93          	mv	s5,a2
80002d38:	012609b3          	add	s3,a2,s2
80002d3c:	00f12423          	sw	a5,8(sp)
80002d40:	00058b93          	mv	s7,a1
80002d44:	01268b33          	add	s6,a3,s2
80002d48:	00000c13          	li	s8,0
80002d4c:	00c12a03          	lw	s4,12(sp)
80002d50:	000b8493          	mv	s1,s7
80002d54:	0004a023          	sw	zero,0(s1)
80002d58:	000a0d13          	mv	s10,s4
80002d5c:	000a8413          	mv	s0,s5
80002d60:	00000d93          	li	s11,0
80002d64:	000d1583          	lh	a1,0(s10)
80002d68:	00041503          	lh	a0,0(s0)
80002d6c:	00240413          	addi	s0,s0,2
80002d70:	012d0d33          	add	s10,s10,s2
80002d74:	691000ef          	jal	ra,80003c04 <__mulsi3>
80002d78:	00ad8db3          	add	s11,s11,a0
80002d7c:	01b4a023          	sw	s11,0(s1)
80002d80:	ff3412e3          	bne	s0,s3,80002d64 <matrix_mul_matrix+0x7c>
80002d84:	002a0a13          	addi	s4,s4,2
80002d88:	00448493          	addi	s1,s1,4
80002d8c:	fd6a14e3          	bne	s4,s6,80002d54 <matrix_mul_matrix+0x6c>
80002d90:	00812783          	lw	a5,8(sp)
80002d94:	001c0c13          	addi	s8,s8,1
80002d98:	012a8ab3          	add	s5,s5,s2
80002d9c:	012989b3          	add	s3,s3,s2
80002da0:	00fb8bb3          	add	s7,s7,a5
80002da4:	fb8c94e3          	bne	s9,s8,80002d4c <matrix_mul_matrix+0x64>
80002da8:	04c12083          	lw	ra,76(sp)
80002dac:	04812403          	lw	s0,72(sp)
80002db0:	04412483          	lw	s1,68(sp)
80002db4:	04012903          	lw	s2,64(sp)
80002db8:	03c12983          	lw	s3,60(sp)
80002dbc:	03812a03          	lw	s4,56(sp)
80002dc0:	03412a83          	lw	s5,52(sp)
80002dc4:	03012b03          	lw	s6,48(sp)
80002dc8:	02c12b83          	lw	s7,44(sp)
80002dcc:	02812c03          	lw	s8,40(sp)
80002dd0:	02412c83          	lw	s9,36(sp)
80002dd4:	02012d03          	lw	s10,32(sp)
80002dd8:	01c12d83          	lw	s11,28(sp)
80002ddc:	05010113          	addi	sp,sp,80
80002de0:	00008067          	ret
80002de4:	00008067          	ret

80002de8 <matrix_mul_matrix_bitextract>:
80002de8:	10050863          	beqz	a0,80002ef8 <matrix_mul_matrix_bitextract+0x110>
80002dec:	fb010113          	addi	sp,sp,-80
80002df0:	04912223          	sw	s1,68(sp)
80002df4:	00251793          	slli	a5,a0,0x2
80002df8:	00151493          	slli	s1,a0,0x1
80002dfc:	05212023          	sw	s2,64(sp)
80002e00:	03412c23          	sw	s4,56(sp)
80002e04:	03512a23          	sw	s5,52(sp)
80002e08:	03612823          	sw	s6,48(sp)
80002e0c:	03712623          	sw	s7,44(sp)
80002e10:	03812423          	sw	s8,40(sp)
80002e14:	04112623          	sw	ra,76(sp)
80002e18:	04812423          	sw	s0,72(sp)
80002e1c:	03312e23          	sw	s3,60(sp)
80002e20:	03912223          	sw	s9,36(sp)
80002e24:	03a12023          	sw	s10,32(sp)
80002e28:	01b12e23          	sw	s11,28(sp)
80002e2c:	00d12623          	sw	a3,12(sp)
80002e30:	00050c13          	mv	s8,a0
80002e34:	00060a13          	mv	s4,a2
80002e38:	00960933          	add	s2,a2,s1
80002e3c:	00f12423          	sw	a5,8(sp)
80002e40:	00058b13          	mv	s6,a1
80002e44:	00968ab3          	add	s5,a3,s1
80002e48:	00000b93          	li	s7,0
80002e4c:	00c12983          	lw	s3,12(sp)
80002e50:	000b0413          	mv	s0,s6
80002e54:	00042023          	sw	zero,0(s0)
80002e58:	00098c93          	mv	s9,s3
80002e5c:	000a0d93          	mv	s11,s4
80002e60:	00000d13          	li	s10,0
80002e64:	000c9583          	lh	a1,0(s9)
80002e68:	000d9503          	lh	a0,0(s11)
80002e6c:	002d8d93          	addi	s11,s11,2
80002e70:	009c8cb3          	add	s9,s9,s1
80002e74:	591000ef          	jal	ra,80003c04 <__mulsi3>
80002e78:	40255693          	srai	a3,a0,0x2
80002e7c:	40555593          	srai	a1,a0,0x5
80002e80:	07f5f593          	andi	a1,a1,127
80002e84:	00f6f513          	andi	a0,a3,15
80002e88:	57d000ef          	jal	ra,80003c04 <__mulsi3>
80002e8c:	00ad0d33          	add	s10,s10,a0
80002e90:	01a42023          	sw	s10,0(s0)
80002e94:	fdb918e3          	bne	s2,s11,80002e64 <matrix_mul_matrix_bitextract+0x7c>
80002e98:	00298993          	addi	s3,s3,2
80002e9c:	00440413          	addi	s0,s0,4
80002ea0:	fb3a9ae3          	bne	s5,s3,80002e54 <matrix_mul_matrix_bitextract+0x6c>
80002ea4:	00812783          	lw	a5,8(sp)
80002ea8:	001b8b93          	addi	s7,s7,1
80002eac:	009a0a33          	add	s4,s4,s1
80002eb0:	00990933          	add	s2,s2,s1
80002eb4:	00fb0b33          	add	s6,s6,a5
80002eb8:	f97c1ae3          	bne	s8,s7,80002e4c <matrix_mul_matrix_bitextract+0x64>
80002ebc:	04c12083          	lw	ra,76(sp)
80002ec0:	04812403          	lw	s0,72(sp)
80002ec4:	04412483          	lw	s1,68(sp)
80002ec8:	04012903          	lw	s2,64(sp)
80002ecc:	03c12983          	lw	s3,60(sp)
80002ed0:	03812a03          	lw	s4,56(sp)
80002ed4:	03412a83          	lw	s5,52(sp)
80002ed8:	03012b03          	lw	s6,48(sp)
80002edc:	02c12b83          	lw	s7,44(sp)
80002ee0:	02812c03          	lw	s8,40(sp)
80002ee4:	02412c83          	lw	s9,36(sp)
80002ee8:	02012d03          	lw	s10,32(sp)
80002eec:	01c12d83          	lw	s11,28(sp)
80002ef0:	05010113          	addi	sp,sp,80
80002ef4:	00008067          	ret
80002ef8:	00008067          	ret

80002efc <matrix_test>:
80002efc:	fb010113          	addi	sp,sp,-80
80002f00:	03612823          	sw	s6,48(sp)
80002f04:	03912223          	sw	s9,36(sp)
80002f08:	04112623          	sw	ra,76(sp)
80002f0c:	00070c93          	mv	s9,a4
80002f10:	04812423          	sw	s0,72(sp)
80002f14:	fffff737          	lui	a4,0xfffff
80002f18:	04912223          	sw	s1,68(sp)
80002f1c:	05212023          	sw	s2,64(sp)
80002f20:	03312e23          	sw	s3,60(sp)
80002f24:	03412c23          	sw	s4,56(sp)
80002f28:	03512a23          	sw	s5,52(sp)
80002f2c:	03712623          	sw	s7,44(sp)
80002f30:	03812423          	sw	s8,40(sp)
80002f34:	03a12023          	sw	s10,32(sp)
80002f38:	01b12e23          	sw	s11,28(sp)
80002f3c:	00b12223          	sw	a1,4(sp)
80002f40:	00c12423          	sw	a2,8(sp)
80002f44:	00d12623          	sw	a3,12(sp)
80002f48:	00eceb33          	or	s6,s9,a4
80002f4c:	36050663          	beqz	a0,800032b8 <matrix_test+0x3bc>
80002f50:	010c9413          	slli	s0,s9,0x10
80002f54:	00050813          	mv	a6,a0
80002f58:	01045413          	srli	s0,s0,0x10
80002f5c:	00151993          	slli	s3,a0,0x1
80002f60:	00060693          	mv	a3,a2
80002f64:	00c12023          	sw	a2,0(sp)
80002f68:	00000b93          	li	s7,0
80002f6c:	00d985b3          	add	a1,s3,a3
80002f70:	0006d603          	lhu	a2,0(a3)
80002f74:	00268693          	addi	a3,a3,2
80002f78:	00c40633          	add	a2,s0,a2
80002f7c:	fec69f23          	sh	a2,-2(a3)
80002f80:	fed598e3          	bne	a1,a3,80002f70 <matrix_test+0x74>
80002f84:	001b8b93          	addi	s7,s7,1
80002f88:	00058693          	mv	a3,a1
80002f8c:	ff7810e3          	bne	a6,s7,80002f6c <matrix_test+0x70>
80002f90:	00412d83          	lw	s11,4(sp)
80002f94:	00812a83          	lw	s5,8(sp)
80002f98:	002b9493          	slli	s1,s7,0x2
80002f9c:	000d8a13          	mv	s4,s11
80002fa0:	00000d13          	li	s10,0
80002fa4:	013a8c33          	add	s8,s5,s3
80002fa8:	000d8913          	mv	s2,s11
80002fac:	000a9503          	lh	a0,0(s5)
80002fb0:	000c8593          	mv	a1,s9
80002fb4:	002a8a93          	addi	s5,s5,2
80002fb8:	44d000ef          	jal	ra,80003c04 <__mulsi3>
80002fbc:	00a92023          	sw	a0,0(s2)
80002fc0:	00490913          	addi	s2,s2,4
80002fc4:	ff8a94e3          	bne	s5,s8,80002fac <matrix_test+0xb0>
80002fc8:	001d0d13          	addi	s10,s10,1
80002fcc:	009d8db3          	add	s11,s11,s1
80002fd0:	fd7d1ae3          	bne	s10,s7,80002fa4 <matrix_test+0xa8>
80002fd4:	00412783          	lw	a5,4(sp)
80002fd8:	41700cb3          	neg	s9,s7
80002fdc:	002c9d13          	slli	s10,s9,0x2
80002fe0:	00978c33          	add	s8,a5,s1
80002fe4:	000c0313          	mv	t1,s8
80002fe8:	00000513          	li	a0,0
80002fec:	00000693          	li	a3,0
80002ff0:	00000813          	li	a6,0
80002ff4:	00000e13          	li	t3,0
80002ff8:	003c9c93          	slli	s9,s9,0x3
80002ffc:	006d0eb3          	add	t4,s10,t1
80003000:	000e8593          	mv	a1,t4
80003004:	01c0006f          	j	80003020 <matrix_test+0x124>
80003008:	01089513          	slli	a0,a7,0x10
8000300c:	00458593          	addi	a1,a1,4
80003010:	41055513          	srai	a0,a0,0x10
80003014:	00000813          	li	a6,0
80003018:	00060693          	mv	a3,a2
8000301c:	02b30c63          	beq	t1,a1,80003054 <matrix_test+0x158>
80003020:	0005a603          	lw	a2,0(a1)
80003024:	01051513          	slli	a0,a0,0x10
80003028:	01055513          	srli	a0,a0,0x10
8000302c:	00c6a6b3          	slt	a3,a3,a2
80003030:	00c80833          	add	a6,a6,a2
80003034:	00a50893          	addi	a7,a0,10
80003038:	00d50533          	add	a0,a0,a3
8000303c:	fd0b46e3          	blt	s6,a6,80003008 <matrix_test+0x10c>
80003040:	01051513          	slli	a0,a0,0x10
80003044:	00458593          	addi	a1,a1,4
80003048:	41055513          	srai	a0,a0,0x10
8000304c:	00060693          	mv	a3,a2
80003050:	fcb318e3          	bne	t1,a1,80003020 <matrix_test+0x124>
80003054:	001e0e13          	addi	t3,t3,1
80003058:	419e8333          	sub	t1,t4,s9
8000305c:	fb7e10e3          	bne	t3,s7,80002ffc <matrix_test+0x100>
80003060:	00000593          	li	a1,0
80003064:	2a9000ef          	jal	ra,80003b0c <crc16>
80003068:	00c12683          	lw	a3,12(sp)
8000306c:	00812603          	lw	a2,8(sp)
80003070:	00412583          	lw	a1,4(sp)
80003074:	00050d93          	mv	s11,a0
80003078:	000b8513          	mv	a0,s7
8000307c:	bb1ff0ef          	jal	ra,80002c2c <matrix_mul_vect>
80003080:	00000513          	li	a0,0
80003084:	00000693          	li	a3,0
80003088:	00000813          	li	a6,0
8000308c:	00000313          	li	t1,0
80003090:	018d0e33          	add	t3,s10,s8
80003094:	000e0593          	mv	a1,t3
80003098:	01c0006f          	j	800030b4 <matrix_test+0x1b8>
8000309c:	01089513          	slli	a0,a7,0x10
800030a0:	00458593          	addi	a1,a1,4
800030a4:	41055513          	srai	a0,a0,0x10
800030a8:	00000813          	li	a6,0
800030ac:	00060693          	mv	a3,a2
800030b0:	02bc0c63          	beq	s8,a1,800030e8 <matrix_test+0x1ec>
800030b4:	0005a603          	lw	a2,0(a1)
800030b8:	01051513          	slli	a0,a0,0x10
800030bc:	01055513          	srli	a0,a0,0x10
800030c0:	00c6a6b3          	slt	a3,a3,a2
800030c4:	00c80833          	add	a6,a6,a2
800030c8:	00a50893          	addi	a7,a0,10
800030cc:	00d50533          	add	a0,a0,a3
800030d0:	fd0b46e3          	blt	s6,a6,8000309c <matrix_test+0x1a0>
800030d4:	01051513          	slli	a0,a0,0x10
800030d8:	00458593          	addi	a1,a1,4
800030dc:	41055513          	srai	a0,a0,0x10
800030e0:	00060693          	mv	a3,a2
800030e4:	fcbc18e3          	bne	s8,a1,800030b4 <matrix_test+0x1b8>
800030e8:	00130313          	addi	t1,t1,1
800030ec:	419e0c33          	sub	s8,t3,s9
800030f0:	fb7310e3          	bne	t1,s7,80003090 <matrix_test+0x194>
800030f4:	000d8593          	mv	a1,s11
800030f8:	215000ef          	jal	ra,80003b0c <crc16>
800030fc:	00412903          	lw	s2,4(sp)
80003100:	00c12683          	lw	a3,12(sp)
80003104:	00812603          	lw	a2,8(sp)
80003108:	00090593          	mv	a1,s2
8000310c:	00050c13          	mv	s8,a0
80003110:	000b8513          	mv	a0,s7
80003114:	bd5ff0ef          	jal	ra,80002ce8 <matrix_mul_matrix>
80003118:	00090e93          	mv	t4,s2
8000311c:	00000513          	li	a0,0
80003120:	00000693          	li	a3,0
80003124:	00000593          	li	a1,0
80003128:	00000e13          	li	t3,0
8000312c:	000e8893          	mv	a7,t4
80003130:	00000813          	li	a6,0
80003134:	0200006f          	j	80003154 <matrix_test+0x258>
80003138:	01031513          	slli	a0,t1,0x10
8000313c:	00180813          	addi	a6,a6,1
80003140:	41055513          	srai	a0,a0,0x10
80003144:	00000593          	li	a1,0
80003148:	00488893          	addi	a7,a7,4
8000314c:	00060693          	mv	a3,a2
80003150:	03787e63          	bgeu	a6,s7,8000318c <matrix_test+0x290>
80003154:	0008a603          	lw	a2,0(a7)
80003158:	01051513          	slli	a0,a0,0x10
8000315c:	01055513          	srli	a0,a0,0x10
80003160:	00c6a6b3          	slt	a3,a3,a2
80003164:	00c585b3          	add	a1,a1,a2
80003168:	00a50313          	addi	t1,a0,10
8000316c:	00d50533          	add	a0,a0,a3
80003170:	fcbb44e3          	blt	s6,a1,80003138 <matrix_test+0x23c>
80003174:	01051513          	slli	a0,a0,0x10
80003178:	00180813          	addi	a6,a6,1
8000317c:	41055513          	srai	a0,a0,0x10
80003180:	00488893          	addi	a7,a7,4
80003184:	00060693          	mv	a3,a2
80003188:	fd7866e3          	bltu	a6,s7,80003154 <matrix_test+0x258>
8000318c:	001e0e13          	addi	t3,t3,1
80003190:	009e8eb3          	add	t4,t4,s1
80003194:	f97e6ce3          	bltu	t3,s7,8000312c <matrix_test+0x230>
80003198:	000c0593          	mv	a1,s8
8000319c:	171000ef          	jal	ra,80003b0c <crc16>
800031a0:	00c12683          	lw	a3,12(sp)
800031a4:	00412583          	lw	a1,4(sp)
800031a8:	00812603          	lw	a2,8(sp)
800031ac:	00050c13          	mv	s8,a0
800031b0:	000b8513          	mv	a0,s7
800031b4:	c35ff0ef          	jal	ra,80002de8 <matrix_mul_matrix_bitextract>
800031b8:	00000513          	li	a0,0
800031bc:	00000693          	li	a3,0
800031c0:	00000593          	li	a1,0
800031c4:	00000e13          	li	t3,0
800031c8:	000a0893          	mv	a7,s4
800031cc:	00000813          	li	a6,0
800031d0:	0200006f          	j	800031f0 <matrix_test+0x2f4>
800031d4:	01031513          	slli	a0,t1,0x10
800031d8:	00180813          	addi	a6,a6,1
800031dc:	41055513          	srai	a0,a0,0x10
800031e0:	00000593          	li	a1,0
800031e4:	00488893          	addi	a7,a7,4
800031e8:	00060693          	mv	a3,a2
800031ec:	03787e63          	bgeu	a6,s7,80003228 <matrix_test+0x32c>
800031f0:	0008a603          	lw	a2,0(a7)
800031f4:	01051513          	slli	a0,a0,0x10
800031f8:	01055513          	srli	a0,a0,0x10
800031fc:	00c6a6b3          	slt	a3,a3,a2
80003200:	00c585b3          	add	a1,a1,a2
80003204:	00a50313          	addi	t1,a0,10
80003208:	00d50533          	add	a0,a0,a3
8000320c:	fcbb44e3          	blt	s6,a1,800031d4 <matrix_test+0x2d8>
80003210:	01051513          	slli	a0,a0,0x10
80003214:	00180813          	addi	a6,a6,1
80003218:	41055513          	srai	a0,a0,0x10
8000321c:	00488893          	addi	a7,a7,4
80003220:	00060693          	mv	a3,a2
80003224:	fd7866e3          	bltu	a6,s7,800031f0 <matrix_test+0x2f4>
80003228:	001e0e13          	addi	t3,t3,1
8000322c:	009a0a33          	add	s4,s4,s1
80003230:	f97e6ce3          	bltu	t3,s7,800031c8 <matrix_test+0x2cc>
80003234:	000c0593          	mv	a1,s8
80003238:	0d5000ef          	jal	ra,80003b0c <crc16>
8000323c:	00000593          	li	a1,0
80003240:	00012703          	lw	a4,0(sp)
80003244:	00000613          	li	a2,0
80003248:	00075683          	lhu	a3,0(a4) # fffff000 <__global_pointer$+0x7fff97f4>
8000324c:	00270713          	addi	a4,a4,2
80003250:	00160613          	addi	a2,a2,1
80003254:	408686b3          	sub	a3,a3,s0
80003258:	fed71f23          	sh	a3,-2(a4)
8000325c:	ff7666e3          	bltu	a2,s7,80003248 <matrix_test+0x34c>
80003260:	00012783          	lw	a5,0(sp)
80003264:	00158593          	addi	a1,a1,1
80003268:	013787b3          	add	a5,a5,s3
8000326c:	00f12023          	sw	a5,0(sp)
80003270:	fd75e8e3          	bltu	a1,s7,80003240 <matrix_test+0x344>
80003274:	04c12083          	lw	ra,76(sp)
80003278:	04812403          	lw	s0,72(sp)
8000327c:	01051513          	slli	a0,a0,0x10
80003280:	04412483          	lw	s1,68(sp)
80003284:	04012903          	lw	s2,64(sp)
80003288:	03c12983          	lw	s3,60(sp)
8000328c:	03812a03          	lw	s4,56(sp)
80003290:	03412a83          	lw	s5,52(sp)
80003294:	03012b03          	lw	s6,48(sp)
80003298:	02c12b83          	lw	s7,44(sp)
8000329c:	02812c03          	lw	s8,40(sp)
800032a0:	02412c83          	lw	s9,36(sp)
800032a4:	02012d03          	lw	s10,32(sp)
800032a8:	01c12d83          	lw	s11,28(sp)
800032ac:	41055513          	srai	a0,a0,0x10
800032b0:	05010113          	addi	sp,sp,80
800032b4:	00008067          	ret
800032b8:	00000593          	li	a1,0
800032bc:	051000ef          	jal	ra,80003b0c <crc16>
800032c0:	00c12983          	lw	s3,12(sp)
800032c4:	00812903          	lw	s2,8(sp)
800032c8:	00412483          	lw	s1,4(sp)
800032cc:	00098693          	mv	a3,s3
800032d0:	00090613          	mv	a2,s2
800032d4:	00050413          	mv	s0,a0
800032d8:	00048593          	mv	a1,s1
800032dc:	00000513          	li	a0,0
800032e0:	94dff0ef          	jal	ra,80002c2c <matrix_mul_vect>
800032e4:	00040593          	mv	a1,s0
800032e8:	00000513          	li	a0,0
800032ec:	021000ef          	jal	ra,80003b0c <crc16>
800032f0:	00098693          	mv	a3,s3
800032f4:	00090613          	mv	a2,s2
800032f8:	00050413          	mv	s0,a0
800032fc:	00048593          	mv	a1,s1
80003300:	00000513          	li	a0,0
80003304:	9e5ff0ef          	jal	ra,80002ce8 <matrix_mul_matrix>
80003308:	00040593          	mv	a1,s0
8000330c:	00000513          	li	a0,0
80003310:	7fc000ef          	jal	ra,80003b0c <crc16>
80003314:	00050413          	mv	s0,a0
80003318:	00048593          	mv	a1,s1
8000331c:	00098693          	mv	a3,s3
80003320:	00090613          	mv	a2,s2
80003324:	00000513          	li	a0,0
80003328:	ac1ff0ef          	jal	ra,80002de8 <matrix_mul_matrix_bitextract>
8000332c:	00040593          	mv	a1,s0
80003330:	00000513          	li	a0,0
80003334:	7d8000ef          	jal	ra,80003b0c <crc16>
80003338:	f3dff06f          	j	80003274 <matrix_test+0x378>

8000333c <core_bench_matrix>:
8000333c:	ff010113          	addi	sp,sp,-16
80003340:	00812423          	sw	s0,8(sp)
80003344:	00112623          	sw	ra,12(sp)
80003348:	00060413          	mv	s0,a2
8000334c:	00058713          	mv	a4,a1
80003350:	00852683          	lw	a3,8(a0)
80003354:	00c52583          	lw	a1,12(a0)
80003358:	00452603          	lw	a2,4(a0)
8000335c:	00052503          	lw	a0,0(a0)
80003360:	b9dff0ef          	jal	ra,80002efc <matrix_test>
80003364:	00040593          	mv	a1,s0
80003368:	00812403          	lw	s0,8(sp)
8000336c:	00c12083          	lw	ra,12(sp)
80003370:	01010113          	addi	sp,sp,16
80003374:	7980006f          	j	80003b0c <crc16>

80003378 <core_init_state>:
80003378:	00000f13          	li	t5,0
8000337c:	00000e93          	li	t4,0
80003380:	00158593          	addi	a1,a1,1
80003384:	01ee8fb3          	add	t6,t4,t5
80003388:	01059593          	slli	a1,a1,0x10
8000338c:	fff50813          	addi	a6,a0,-1
80003390:	001f8293          	addi	t0,t6,1
80003394:	0105d593          	srli	a1,a1,0x10
80003398:	00000793          	li	a5,0
8000339c:	02c00e13          	li	t3,44
800033a0:	00400893          	li	a7,4
800033a4:	00001317          	auipc	t1,0x1
800033a8:	10030313          	addi	t1,t1,256 # 800044a4 <intpat>
800033ac:	00001697          	auipc	a3,0x1
800033b0:	0e468693          	addi	a3,a3,228 # 80004490 <state_known_crc+0xc>
800033b4:	0702f063          	bgeu	t0,a6,80003414 <core_init_state+0x9c>
800033b8:	080f1263          	bnez	t5,8000343c <core_init_state+0xc4>
800033bc:	0075f793          	andi	a5,a1,7
800033c0:	ffd78793          	addi	a5,a5,-3
800033c4:	01079793          	slli	a5,a5,0x10
800033c8:	0035d713          	srli	a4,a1,0x3
800033cc:	0107d793          	srli	a5,a5,0x10
800033d0:	00377713          	andi	a4,a4,3
800033d4:	0af8e663          	bltu	a7,a5,80003480 <core_init_state+0x108>
800033d8:	00279793          	slli	a5,a5,0x2
800033dc:	00d787b3          	add	a5,a5,a3
800033e0:	0007a783          	lw	a5,0(a5)
800033e4:	00271713          	slli	a4,a4,0x2
800033e8:	00e30733          	add	a4,t1,a4
800033ec:	00d787b3          	add	a5,a5,a3
800033f0:	00078067          	jr	a5
800033f4:	01072783          	lw	a5,16(a4)
800033f8:	00800f13          	li	t5,8
800033fc:	00158593          	addi	a1,a1,1
80003400:	01ee8fb3          	add	t6,t4,t5
80003404:	01059593          	slli	a1,a1,0x10
80003408:	001f8293          	addi	t0,t6,1
8000340c:	0105d593          	srli	a1,a1,0x10
80003410:	fb02e4e3          	bltu	t0,a6,800033b8 <core_init_state+0x40>
80003414:	00aefc63          	bgeu	t4,a0,8000342c <core_init_state+0xb4>
80003418:	01d607b3          	add	a5,a2,t4
8000341c:	00a60633          	add	a2,a2,a0
80003420:	00078023          	sb	zero,0(a5)
80003424:	00178793          	addi	a5,a5,1
80003428:	fef61ce3          	bne	a2,a5,80003420 <core_init_state+0xa8>
8000342c:	00008067          	ret
80003430:	02072783          	lw	a5,32(a4)
80003434:	00800f13          	li	t5,8
80003438:	fc5ff06f          	j	800033fc <core_init_state+0x84>
8000343c:	01d60733          	add	a4,a2,t4
80003440:	01e78f33          	add	t5,a5,t5
80003444:	0007ce83          	lbu	t4,0(a5)
80003448:	00170713          	addi	a4,a4,1
8000344c:	00178793          	addi	a5,a5,1
80003450:	ffd70fa3          	sb	t4,-1(a4)
80003454:	feff18e3          	bne	t5,a5,80003444 <core_init_state+0xcc>
80003458:	0075f793          	andi	a5,a1,7
8000345c:	ffd78793          	addi	a5,a5,-3
80003460:	01f60fb3          	add	t6,a2,t6
80003464:	01079793          	slli	a5,a5,0x10
80003468:	0035d713          	srli	a4,a1,0x3
8000346c:	01cf8023          	sb	t3,0(t6)
80003470:	0107d793          	srli	a5,a5,0x10
80003474:	00028e93          	mv	t4,t0
80003478:	00377713          	andi	a4,a4,3
8000347c:	f4f8fee3          	bgeu	a7,a5,800033d8 <core_init_state+0x60>
80003480:	00271713          	slli	a4,a4,0x2
80003484:	00e30733          	add	a4,t1,a4
80003488:	00072783          	lw	a5,0(a4)
8000348c:	00400f13          	li	t5,4
80003490:	f6dff06f          	j	800033fc <core_init_state+0x84>
80003494:	03072783          	lw	a5,48(a4)
80003498:	00800f13          	li	t5,8
8000349c:	f61ff06f          	j	800033fc <core_init_state+0x84>

800034a0 <core_state_transition>:
800034a0:	00052783          	lw	a5,0(a0)
800034a4:	0007c703          	lbu	a4,0(a5)
800034a8:	06070463          	beqz	a4,80003510 <core_state_transition+0x70>
800034ac:	02c00693          	li	a3,44
800034b0:	00178613          	addi	a2,a5,1
800034b4:	2ad70463          	beq	a4,a3,8000375c <core_state_transition+0x2bc>
800034b8:	0005a803          	lw	a6,0(a1)
800034bc:	fd070893          	addi	a7,a4,-48
800034c0:	0ff8f893          	andi	a7,a7,255
800034c4:	00900313          	li	t1,9
800034c8:	00180813          	addi	a6,a6,1
800034cc:	05136863          	bltu	t1,a7,8000351c <core_state_transition+0x7c>
800034d0:	0105a023          	sw	a6,0(a1)
800034d4:	0017c703          	lbu	a4,1(a5)
800034d8:	2c070463          	beqz	a4,800037a0 <core_state_transition+0x300>
800034dc:	00278793          	addi	a5,a5,2
800034e0:	0cd70e63          	beq	a4,a3,800035bc <core_state_transition+0x11c>
800034e4:	02e00813          	li	a6,46
800034e8:	00900893          	li	a7,9
800034ec:	02c00313          	li	t1,44
800034f0:	fd070693          	addi	a3,a4,-48
800034f4:	0ff6f693          	andi	a3,a3,255
800034f8:	0d070663          	beq	a4,a6,800035c4 <core_state_transition+0x124>
800034fc:	20d8f463          	bgeu	a7,a3,80003704 <core_state_transition+0x264>
80003500:	0105a683          	lw	a3,16(a1)
80003504:	00100713          	li	a4,1
80003508:	00168693          	addi	a3,a3,1
8000350c:	00d5a823          	sw	a3,16(a1)
80003510:	00f52023          	sw	a5,0(a0)
80003514:	00070513          	mv	a0,a4
80003518:	00008067          	ret
8000351c:	02b00893          	li	a7,43
80003520:	03170c63          	beq	a4,a7,80003558 <core_state_transition+0xb8>
80003524:	02d00893          	li	a7,45
80003528:	03170863          	beq	a4,a7,80003558 <core_state_transition+0xb8>
8000352c:	02e00893          	li	a7,46
80003530:	23170c63          	beq	a4,a7,80003768 <core_state_transition+0x2c8>
80003534:	0045a703          	lw	a4,4(a1)
80003538:	0105a023          	sw	a6,0(a1)
8000353c:	00060793          	mv	a5,a2
80003540:	00170713          	addi	a4,a4,1
80003544:	00e5a223          	sw	a4,4(a1)
80003548:	00100713          	li	a4,1
8000354c:	00f52023          	sw	a5,0(a0)
80003550:	00070513          	mv	a0,a4
80003554:	00008067          	ret
80003558:	0105a023          	sw	a6,0(a1)
8000355c:	0017c803          	lbu	a6,1(a5)
80003560:	22080463          	beqz	a6,80003788 <core_state_transition+0x2e8>
80003564:	00278613          	addi	a2,a5,2
80003568:	22d80063          	beq	a6,a3,80003788 <core_state_transition+0x2e8>
8000356c:	0085a683          	lw	a3,8(a1)
80003570:	fd080713          	addi	a4,a6,-48
80003574:	0ff77713          	andi	a4,a4,255
80003578:	00900893          	li	a7,9
8000357c:	00168693          	addi	a3,a3,1
80003580:	02e8f263          	bgeu	a7,a4,800035a4 <core_state_transition+0x104>
80003584:	02e00713          	li	a4,46
80003588:	1ae80a63          	beq	a6,a4,8000373c <core_state_transition+0x29c>
8000358c:	00d5a423          	sw	a3,8(a1)
80003590:	00060793          	mv	a5,a2
80003594:	00100713          	li	a4,1
80003598:	00f52023          	sw	a5,0(a0)
8000359c:	00070513          	mv	a0,a4
800035a0:	00008067          	ret
800035a4:	00d5a423          	sw	a3,8(a1)
800035a8:	0027c703          	lbu	a4,2(a5)
800035ac:	1e070a63          	beqz	a4,800037a0 <core_state_transition+0x300>
800035b0:	02c00693          	li	a3,44
800035b4:	00160793          	addi	a5,a2,1
800035b8:	f2d716e3          	bne	a4,a3,800034e4 <core_state_transition+0x44>
800035bc:	00400713          	li	a4,4
800035c0:	f51ff06f          	j	80003510 <core_state_transition+0x70>
800035c4:	0105a703          	lw	a4,16(a1)
800035c8:	00170713          	addi	a4,a4,1
800035cc:	00e5a823          	sw	a4,16(a1)
800035d0:	00164703          	lbu	a4,1(a2)
800035d4:	1c070e63          	beqz	a4,800037b0 <core_state_transition+0x310>
800035d8:	02c00693          	li	a3,44
800035dc:	00178813          	addi	a6,a5,1
800035e0:	18d70e63          	beq	a4,a3,8000377c <core_state_transition+0x2dc>
800035e4:	fd070693          	addi	a3,a4,-48
800035e8:	04500613          	li	a2,69
800035ec:	0df77713          	andi	a4,a4,223
800035f0:	00900893          	li	a7,9
800035f4:	02c00313          	li	t1,44
800035f8:	0ff6f693          	andi	a3,a3,255
800035fc:	02c70863          	beq	a4,a2,8000362c <core_state_transition+0x18c>
80003600:	12d8e263          	bltu	a7,a3,80003724 <core_state_transition+0x284>
80003604:	0017c703          	lbu	a4,1(a5)
80003608:	00180693          	addi	a3,a6,1
8000360c:	00080793          	mv	a5,a6
80003610:	16070663          	beqz	a4,8000377c <core_state_transition+0x2dc>
80003614:	1c670263          	beq	a4,t1,800037d8 <core_state_transition+0x338>
80003618:	00068813          	mv	a6,a3
8000361c:	fd070693          	addi	a3,a4,-48
80003620:	0df77713          	andi	a4,a4,223
80003624:	0ff6f693          	andi	a3,a3,255
80003628:	fcc71ce3          	bne	a4,a2,80003600 <core_state_transition+0x160>
8000362c:	0145a703          	lw	a4,20(a1)
80003630:	00170713          	addi	a4,a4,1
80003634:	00e5aa23          	sw	a4,20(a1)
80003638:	0017c703          	lbu	a4,1(a5)
8000363c:	14070c63          	beqz	a4,80003794 <core_state_transition+0x2f4>
80003640:	02c00613          	li	a2,44
80003644:	00180793          	addi	a5,a6,1
80003648:	14c70863          	beq	a4,a2,80003798 <core_state_transition+0x2f8>
8000364c:	00c5a683          	lw	a3,12(a1)
80003650:	fd570713          	addi	a4,a4,-43
80003654:	0fd77713          	andi	a4,a4,253
80003658:	00168693          	addi	a3,a3,1
8000365c:	00d5a623          	sw	a3,12(a1)
80003660:	00070a63          	beqz	a4,80003674 <core_state_transition+0x1d4>
80003664:	00100713          	li	a4,1
80003668:	00f52023          	sw	a5,0(a0)
8000366c:	00070513          	mv	a0,a4
80003670:	00008067          	ret
80003674:	00184703          	lbu	a4,1(a6)
80003678:	14070063          	beqz	a4,800037b8 <core_state_transition+0x318>
8000367c:	00280693          	addi	a3,a6,2
80003680:	14c70063          	beq	a4,a2,800037c0 <core_state_transition+0x320>
80003684:	0185a783          	lw	a5,24(a1)
80003688:	fd070713          	addi	a4,a4,-48
8000368c:	0ff77713          	andi	a4,a4,255
80003690:	00178793          	addi	a5,a5,1
80003694:	00900893          	li	a7,9
80003698:	00f5ac23          	sw	a5,24(a1)
8000369c:	00e8f863          	bgeu	a7,a4,800036ac <core_state_transition+0x20c>
800036a0:	00068793          	mv	a5,a3
800036a4:	00100713          	li	a4,1
800036a8:	fc1ff06f          	j	80003668 <core_state_transition+0x1c8>
800036ac:	00284703          	lbu	a4,2(a6)
800036b0:	10070e63          	beqz	a4,800037cc <core_state_transition+0x32c>
800036b4:	00380793          	addi	a5,a6,3
800036b8:	04c70263          	beq	a4,a2,800036fc <core_state_transition+0x25c>
800036bc:	00900613          	li	a2,9
800036c0:	02c00893          	li	a7,44
800036c4:	fd070713          	addi	a4,a4,-48
800036c8:	0ff77713          	andi	a4,a4,255
800036cc:	00e67c63          	bgeu	a2,a4,800036e4 <core_state_transition+0x244>
800036d0:	0045a683          	lw	a3,4(a1)
800036d4:	00100713          	li	a4,1
800036d8:	00168693          	addi	a3,a3,1
800036dc:	00d5a223          	sw	a3,4(a1)
800036e0:	e31ff06f          	j	80003510 <core_state_transition+0x70>
800036e4:	0016c703          	lbu	a4,1(a3)
800036e8:	00178813          	addi	a6,a5,1
800036ec:	00078693          	mv	a3,a5
800036f0:	00070663          	beqz	a4,800036fc <core_state_transition+0x25c>
800036f4:	00080793          	mv	a5,a6
800036f8:	fd1716e3          	bne	a4,a7,800036c4 <core_state_transition+0x224>
800036fc:	00700713          	li	a4,7
80003700:	e11ff06f          	j	80003510 <core_state_transition+0x70>
80003704:	00164703          	lbu	a4,1(a2)
80003708:	00178693          	addi	a3,a5,1
8000370c:	00078613          	mv	a2,a5
80003710:	ea0706e3          	beqz	a4,800035bc <core_state_transition+0x11c>
80003714:	00068793          	mv	a5,a3
80003718:	dc671ce3          	bne	a4,t1,800034f0 <core_state_transition+0x50>
8000371c:	00400713          	li	a4,4
80003720:	df1ff06f          	j	80003510 <core_state_transition+0x70>
80003724:	0145a683          	lw	a3,20(a1)
80003728:	00080793          	mv	a5,a6
8000372c:	00100713          	li	a4,1
80003730:	00168693          	addi	a3,a3,1
80003734:	00d5aa23          	sw	a3,20(a1)
80003738:	dd9ff06f          	j	80003510 <core_state_transition+0x70>
8000373c:	00d5a423          	sw	a3,8(a1)
80003740:	0027c703          	lbu	a4,2(a5)
80003744:	06070463          	beqz	a4,800037ac <core_state_transition+0x30c>
80003748:	02c00793          	li	a5,44
8000374c:	00160813          	addi	a6,a2,1
80003750:	02f70663          	beq	a4,a5,8000377c <core_state_transition+0x2dc>
80003754:	00060793          	mv	a5,a2
80003758:	e8dff06f          	j	800035e4 <core_state_transition+0x144>
8000375c:	00060793          	mv	a5,a2
80003760:	00000713          	li	a4,0
80003764:	dadff06f          	j	80003510 <core_state_transition+0x70>
80003768:	0105a023          	sw	a6,0(a1)
8000376c:	0017c703          	lbu	a4,1(a5)
80003770:	02070e63          	beqz	a4,800037ac <core_state_transition+0x30c>
80003774:	00278813          	addi	a6,a5,2
80003778:	fcd71ee3          	bne	a4,a3,80003754 <core_state_transition+0x2b4>
8000377c:	00080793          	mv	a5,a6
80003780:	00500713          	li	a4,5
80003784:	d8dff06f          	j	80003510 <core_state_transition+0x70>
80003788:	00060793          	mv	a5,a2
8000378c:	00200713          	li	a4,2
80003790:	d81ff06f          	j	80003510 <core_state_transition+0x70>
80003794:	00080793          	mv	a5,a6
80003798:	00300713          	li	a4,3
8000379c:	d75ff06f          	j	80003510 <core_state_transition+0x70>
800037a0:	00060793          	mv	a5,a2
800037a4:	00400713          	li	a4,4
800037a8:	d69ff06f          	j	80003510 <core_state_transition+0x70>
800037ac:	00060793          	mv	a5,a2
800037b0:	00500713          	li	a4,5
800037b4:	d5dff06f          	j	80003510 <core_state_transition+0x70>
800037b8:	00600713          	li	a4,6
800037bc:	d55ff06f          	j	80003510 <core_state_transition+0x70>
800037c0:	00068793          	mv	a5,a3
800037c4:	00600713          	li	a4,6
800037c8:	d49ff06f          	j	80003510 <core_state_transition+0x70>
800037cc:	00068793          	mv	a5,a3
800037d0:	00700713          	li	a4,7
800037d4:	d3dff06f          	j	80003510 <core_state_transition+0x70>
800037d8:	00068793          	mv	a5,a3
800037dc:	00500713          	li	a4,5
800037e0:	d31ff06f          	j	80003510 <core_state_transition+0x70>

800037e4 <core_bench_state>:
800037e4:	f8010113          	addi	sp,sp,-128
800037e8:	06912a23          	sw	s1,116(sp)
800037ec:	07212823          	sw	s2,112(sp)
800037f0:	01010493          	addi	s1,sp,16
800037f4:	03010913          	addi	s2,sp,48
800037f8:	06812c23          	sw	s0,120(sp)
800037fc:	07312623          	sw	s3,108(sp)
80003800:	07412423          	sw	s4,104(sp)
80003804:	07512223          	sw	s5,100(sp)
80003808:	07612023          	sw	s6,96(sp)
8000380c:	05812c23          	sw	s8,88(sp)
80003810:	00068a93          	mv	s5,a3
80003814:	00070a13          	mv	s4,a4
80003818:	00078993          	mv	s3,a5
8000381c:	06112e23          	sw	ra,124(sp)
80003820:	05712e23          	sw	s7,92(sp)
80003824:	00058413          	mv	s0,a1
80003828:	00050c13          	mv	s8,a0
8000382c:	00060b13          	mv	s6,a2
80003830:	00b12623          	sw	a1,12(sp)
80003834:	05010693          	addi	a3,sp,80
80003838:	00048713          	mv	a4,s1
8000383c:	00090793          	mv	a5,s2
80003840:	0007a023          	sw	zero,0(a5)
80003844:	00072023          	sw	zero,0(a4)
80003848:	00478793          	addi	a5,a5,4
8000384c:	00470713          	addi	a4,a4,4
80003850:	fed798e3          	bne	a5,a3,80003840 <core_bench_state+0x5c>
80003854:	00044703          	lbu	a4,0(s0)
80003858:	12070e63          	beqz	a4,80003994 <core_bench_state+0x1b0>
8000385c:	00c10b93          	addi	s7,sp,12
80003860:	03010593          	addi	a1,sp,48
80003864:	000b8513          	mv	a0,s7
80003868:	c39ff0ef          	jal	ra,800034a0 <core_state_transition>
8000386c:	05010793          	addi	a5,sp,80
80003870:	00251513          	slli	a0,a0,0x2
80003874:	00a78533          	add	a0,a5,a0
80003878:	00c12703          	lw	a4,12(sp)
8000387c:	fc052783          	lw	a5,-64(a0)
80003880:	00074703          	lbu	a4,0(a4)
80003884:	00178793          	addi	a5,a5,1
80003888:	fcf52023          	sw	a5,-64(a0)
8000388c:	fc071ae3          	bnez	a4,80003860 <core_bench_state+0x7c>
80003890:	00812623          	sw	s0,12(sp)
80003894:	01840c33          	add	s8,s0,s8
80003898:	00044703          	lbu	a4,0(s0)
8000389c:	11847463          	bgeu	s0,s8,800039a4 <core_bench_state+0x1c0>
800038a0:	00040793          	mv	a5,s0
800038a4:	02c00613          	li	a2,44
800038a8:	0080006f          	j	800038b0 <core_bench_state+0xcc>
800038ac:	0007c703          	lbu	a4,0(a5)
800038b0:	016746b3          	xor	a3,a4,s6
800038b4:	00c70463          	beq	a4,a2,800038bc <core_bench_state+0xd8>
800038b8:	00d78023          	sb	a3,0(a5)
800038bc:	00c12783          	lw	a5,12(sp)
800038c0:	014787b3          	add	a5,a5,s4
800038c4:	00f12623          	sw	a5,12(sp)
800038c8:	ff87e2e3          	bltu	a5,s8,800038ac <core_bench_state+0xc8>
800038cc:	00044783          	lbu	a5,0(s0)
800038d0:	00812623          	sw	s0,12(sp)
800038d4:	04078063          	beqz	a5,80003914 <core_bench_state+0x130>
800038d8:	00c10b93          	addi	s7,sp,12
800038dc:	03010593          	addi	a1,sp,48
800038e0:	000b8513          	mv	a0,s7
800038e4:	bbdff0ef          	jal	ra,800034a0 <core_state_transition>
800038e8:	05010793          	addi	a5,sp,80
800038ec:	00251513          	slli	a0,a0,0x2
800038f0:	00a78533          	add	a0,a5,a0
800038f4:	00c12703          	lw	a4,12(sp)
800038f8:	fc052783          	lw	a5,-64(a0)
800038fc:	00074703          	lbu	a4,0(a4)
80003900:	00178793          	addi	a5,a5,1
80003904:	fcf52023          	sw	a5,-64(a0)
80003908:	fc071ae3          	bnez	a4,800038dc <core_bench_state+0xf8>
8000390c:	00812623          	sw	s0,12(sp)
80003910:	03847463          	bgeu	s0,s8,80003938 <core_bench_state+0x154>
80003914:	02c00693          	li	a3,44
80003918:	00044783          	lbu	a5,0(s0)
8000391c:	0157c733          	xor	a4,a5,s5
80003920:	00d78463          	beq	a5,a3,80003928 <core_bench_state+0x144>
80003924:	00e40023          	sb	a4,0(s0)
80003928:	00c12403          	lw	s0,12(sp)
8000392c:	01440433          	add	s0,s0,s4
80003930:	00812623          	sw	s0,12(sp)
80003934:	ff8462e3          	bltu	s0,s8,80003918 <core_bench_state+0x134>
80003938:	02048413          	addi	s0,s1,32
8000393c:	0004a503          	lw	a0,0(s1)
80003940:	00098593          	mv	a1,s3
80003944:	00448493          	addi	s1,s1,4
80003948:	190000ef          	jal	ra,80003ad8 <crcu32>
8000394c:	00050593          	mv	a1,a0
80003950:	00092503          	lw	a0,0(s2)
80003954:	00490913          	addi	s2,s2,4
80003958:	180000ef          	jal	ra,80003ad8 <crcu32>
8000395c:	00050993          	mv	s3,a0
80003960:	fc941ee3          	bne	s0,s1,8000393c <core_bench_state+0x158>
80003964:	07c12083          	lw	ra,124(sp)
80003968:	07812403          	lw	s0,120(sp)
8000396c:	07412483          	lw	s1,116(sp)
80003970:	07012903          	lw	s2,112(sp)
80003974:	06c12983          	lw	s3,108(sp)
80003978:	06812a03          	lw	s4,104(sp)
8000397c:	06412a83          	lw	s5,100(sp)
80003980:	06012b03          	lw	s6,96(sp)
80003984:	05c12b83          	lw	s7,92(sp)
80003988:	05812c03          	lw	s8,88(sp)
8000398c:	08010113          	addi	sp,sp,128
80003990:	00008067          	ret
80003994:	00812623          	sw	s0,12(sp)
80003998:	01840c33          	add	s8,s0,s8
8000399c:	f18462e3          	bltu	s0,s8,800038a0 <core_bench_state+0xbc>
800039a0:	f99ff06f          	j	80003938 <core_bench_state+0x154>
800039a4:	f2071ce3          	bnez	a4,800038dc <core_bench_state+0xf8>
800039a8:	f91ff06f          	j	80003938 <core_bench_state+0x154>

800039ac <get_seed_32>:
800039ac:	00500793          	li	a5,5
800039b0:	06a7e063          	bltu	a5,a0,80003a10 <get_seed_32+0x64>
800039b4:	00001717          	auipc	a4,0x1
800039b8:	b3070713          	addi	a4,a4,-1232 # 800044e4 <errpat+0x10>
800039bc:	00251513          	slli	a0,a0,0x2
800039c0:	00e50533          	add	a0,a0,a4
800039c4:	00052783          	lw	a5,0(a0)
800039c8:	00e787b3          	add	a5,a5,a4
800039cc:	00078067          	jr	a5
800039d0:	fdc18793          	addi	a5,gp,-36 # 800057e8 <_end>
800039d4:	0007a503          	lw	a0,0(a5)
800039d8:	00008067          	ret
800039dc:	fe418793          	addi	a5,gp,-28 # 800057f0 <seed1_volatile>
800039e0:	0007a503          	lw	a0,0(a5)
800039e4:	00008067          	ret
800039e8:	fe018793          	addi	a5,gp,-32 # 800057ec <seed2_volatile>
800039ec:	0007a503          	lw	a0,0(a5)
800039f0:	00008067          	ret
800039f4:	80818793          	addi	a5,gp,-2040 # 80005014 <seed3_volatile>
800039f8:	0007a503          	lw	a0,0(a5)
800039fc:	00008067          	ret
80003a00:	00001797          	auipc	a5,0x1
80003a04:	61078793          	addi	a5,a5,1552 # 80005010 <seed4_volatile>
80003a08:	0007a503          	lw	a0,0(a5)
80003a0c:	00008067          	ret
80003a10:	00000513          	li	a0,0
80003a14:	00008067          	ret

80003a18 <crcu8>:
80003a18:	ffffa637          	lui	a2,0xffffa
80003a1c:	00800793          	li	a5,8
80003a20:	00160613          	addi	a2,a2,1 # ffffa001 <__global_pointer$+0x7fff47f5>
80003a24:	00a5c733          	xor	a4,a1,a0
80003a28:	fff78793          	addi	a5,a5,-1
80003a2c:	0015d593          	srli	a1,a1,0x1
80003a30:	00177713          	andi	a4,a4,1
80003a34:	0ff7f793          	andi	a5,a5,255
80003a38:	00c5c6b3          	xor	a3,a1,a2
80003a3c:	00155513          	srli	a0,a0,0x1
80003a40:	00070663          	beqz	a4,80003a4c <crcu8+0x34>
80003a44:	01069593          	slli	a1,a3,0x10
80003a48:	0105d593          	srli	a1,a1,0x10
80003a4c:	fc079ce3          	bnez	a5,80003a24 <crcu8+0xc>
80003a50:	00058513          	mv	a0,a1
80003a54:	00008067          	ret

80003a58 <crcu16>:
80003a58:	ffffa837          	lui	a6,0xffffa
80003a5c:	0ff57693          	andi	a3,a0,255
80003a60:	00800793          	li	a5,8
80003a64:	00180813          	addi	a6,a6,1 # ffffa001 <__global_pointer$+0x7fff47f5>
80003a68:	00d5c733          	xor	a4,a1,a3
80003a6c:	fff78793          	addi	a5,a5,-1
80003a70:	0015d593          	srli	a1,a1,0x1
80003a74:	00177713          	andi	a4,a4,1
80003a78:	0ff7f793          	andi	a5,a5,255
80003a7c:	0105c633          	xor	a2,a1,a6
80003a80:	0016d693          	srli	a3,a3,0x1
80003a84:	00070663          	beqz	a4,80003a90 <crcu16+0x38>
80003a88:	01061593          	slli	a1,a2,0x10
80003a8c:	0105d593          	srli	a1,a1,0x10
80003a90:	fc079ce3          	bnez	a5,80003a68 <crcu16+0x10>
80003a94:	ffffa637          	lui	a2,0xffffa
80003a98:	00855513          	srli	a0,a0,0x8
80003a9c:	00800793          	li	a5,8
80003aa0:	00160613          	addi	a2,a2,1 # ffffa001 <__global_pointer$+0x7fff47f5>
80003aa4:	00a5c733          	xor	a4,a1,a0
80003aa8:	fff78793          	addi	a5,a5,-1
80003aac:	0015d593          	srli	a1,a1,0x1
80003ab0:	00177713          	andi	a4,a4,1
80003ab4:	0ff7f793          	andi	a5,a5,255
80003ab8:	00c5c6b3          	xor	a3,a1,a2
80003abc:	00155513          	srli	a0,a0,0x1
80003ac0:	00070663          	beqz	a4,80003acc <crcu16+0x74>
80003ac4:	01069593          	slli	a1,a3,0x10
80003ac8:	0105d593          	srli	a1,a1,0x10
80003acc:	fc079ce3          	bnez	a5,80003aa4 <crcu16+0x4c>
80003ad0:	00058513          	mv	a0,a1
80003ad4:	00008067          	ret

80003ad8 <crcu32>:
80003ad8:	ff010113          	addi	sp,sp,-16
80003adc:	00812423          	sw	s0,8(sp)
80003ae0:	00050413          	mv	s0,a0
80003ae4:	01051513          	slli	a0,a0,0x10
80003ae8:	01055513          	srli	a0,a0,0x10
80003aec:	00112623          	sw	ra,12(sp)
80003af0:	f69ff0ef          	jal	ra,80003a58 <crcu16>
80003af4:	00050593          	mv	a1,a0
80003af8:	01045513          	srli	a0,s0,0x10
80003afc:	00812403          	lw	s0,8(sp)
80003b00:	00c12083          	lw	ra,12(sp)
80003b04:	01010113          	addi	sp,sp,16
80003b08:	f51ff06f          	j	80003a58 <crcu16>

80003b0c <crc16>:
80003b0c:	01051513          	slli	a0,a0,0x10
80003b10:	01055513          	srli	a0,a0,0x10
80003b14:	f45ff06f          	j	80003a58 <crcu16>

80003b18 <check_data_types>:
80003b18:	00000513          	li	a0,0
80003b1c:	00008067          	ret

80003b20 <start_time>:
80003b20:	00008067          	ret

80003b24 <stop_time>:
80003b24:	00008067          	ret

80003b28 <get_time>:
80003b28:	00000513          	li	a0,0
80003b2c:	00008067          	ret

80003b30 <time_in_secs>:
80003b30:	000f45b7          	lui	a1,0xf4
80003b34:	ff010113          	addi	sp,sp,-16
80003b38:	24058593          	addi	a1,a1,576 # f4240 <_start-0x7ff0bdc0>
80003b3c:	00112623          	sw	ra,12(sp)
80003b40:	0f0000ef          	jal	ra,80003c30 <__udivsi3>
80003b44:	00c12083          	lw	ra,12(sp)
80003b48:	01010113          	addi	sp,sp,16
80003b4c:	00008067          	ret

80003b50 <portable_init>:
80003b50:	00100793          	li	a5,1
80003b54:	00f50023          	sb	a5,0(a0)
80003b58:	00008067          	ret

80003b5c <portable_fini>:
80003b5c:	00050023          	sb	zero,0(a0)
80003b60:	00008067          	ret

80003b64 <ee_printf>:
80003b64:	fe010113          	addi	sp,sp,-32
80003b68:	00b12223          	sw	a1,4(sp)
80003b6c:	00c12423          	sw	a2,8(sp)
80003b70:	00d12623          	sw	a3,12(sp)
80003b74:	00e12823          	sw	a4,16(sp)
80003b78:	00f12a23          	sw	a5,20(sp)
80003b7c:	01012c23          	sw	a6,24(sp)
80003b80:	01112e23          	sw	a7,28(sp)
80003b84:	02010113          	addi	sp,sp,32
80003b88:	00008067          	ret

80003b8c <tohost_exit>:
80003b8c:	00151513          	slli	a0,a0,0x1
80003b90:	ffffd697          	auipc	a3,0xffffd
80003b94:	47068693          	addi	a3,a3,1136 # 80001000 <tohost>
80003b98:	00156713          	ori	a4,a0,1
80003b9c:	00000793          	li	a5,0
80003ba0:	00e6a023          	sw	a4,0(a3)
80003ba4:	00f6a223          	sw	a5,4(a3)
80003ba8:	0000006f          	j	80003ba8 <tohost_exit+0x1c>

80003bac <handle_trap>:
80003bac:	00001637          	lui	a2,0x1
80003bb0:	ffffd797          	auipc	a5,0xffffd
80003bb4:	45078793          	addi	a5,a5,1104 # 80001000 <tohost>
80003bb8:	a7360613          	addi	a2,a2,-1421 # a73 <_start-0x7ffff58d>
80003bbc:	00000693          	li	a3,0
80003bc0:	00c7a023          	sw	a2,0(a5)
80003bc4:	00d7a223          	sw	a3,4(a5)
80003bc8:	0000006f          	j	80003bc8 <handle_trap+0x1c>

80003bcc <exit>:
80003bcc:	ff010113          	addi	sp,sp,-16
80003bd0:	00112623          	sw	ra,12(sp)
80003bd4:	fb9ff0ef          	jal	ra,80003b8c <tohost_exit>

80003bd8 <abort>:
80003bd8:	ffffd797          	auipc	a5,0xffffd
80003bdc:	42878793          	addi	a5,a5,1064 # 80001000 <tohost>
80003be0:	10d00613          	li	a2,269
80003be4:	00000693          	li	a3,0
80003be8:	00c7a023          	sw	a2,0(a5)
80003bec:	00d7a223          	sw	a3,4(a5)
80003bf0:	0000006f          	j	80003bf0 <abort+0x18>

80003bf4 <_init>:
80003bf4:	ff010113          	addi	sp,sp,-16
80003bf8:	00112623          	sw	ra,12(sp)
80003bfc:	0e0000ef          	jal	ra,80003cdc <main>
80003c00:	f8dff0ef          	jal	ra,80003b8c <tohost_exit>

80003c04 <__mulsi3>:
80003c04:	00050613          	mv	a2,a0
80003c08:	00000513          	li	a0,0
80003c0c:	0015f693          	andi	a3,a1,1
80003c10:	00068463          	beqz	a3,80003c18 <__mulsi3+0x14>
80003c14:	00c50533          	add	a0,a0,a2
80003c18:	0015d593          	srli	a1,a1,0x1
80003c1c:	00161613          	slli	a2,a2,0x1
80003c20:	fe0596e3          	bnez	a1,80003c0c <__mulsi3+0x8>
80003c24:	00008067          	ret

80003c28 <__divsi3>:
80003c28:	06054063          	bltz	a0,80003c88 <__umodsi3+0x10>
80003c2c:	0605c663          	bltz	a1,80003c98 <__umodsi3+0x20>

80003c30 <__udivsi3>:
80003c30:	00058613          	mv	a2,a1
80003c34:	00050593          	mv	a1,a0
80003c38:	fff00513          	li	a0,-1
80003c3c:	02060c63          	beqz	a2,80003c74 <__udivsi3+0x44>
80003c40:	00100693          	li	a3,1
80003c44:	00b67a63          	bgeu	a2,a1,80003c58 <__udivsi3+0x28>
80003c48:	00c05863          	blez	a2,80003c58 <__udivsi3+0x28>
80003c4c:	00161613          	slli	a2,a2,0x1
80003c50:	00169693          	slli	a3,a3,0x1
80003c54:	feb66ae3          	bltu	a2,a1,80003c48 <__udivsi3+0x18>
80003c58:	00000513          	li	a0,0
80003c5c:	00c5e663          	bltu	a1,a2,80003c68 <__udivsi3+0x38>
80003c60:	40c585b3          	sub	a1,a1,a2
80003c64:	00d56533          	or	a0,a0,a3
80003c68:	0016d693          	srli	a3,a3,0x1
80003c6c:	00165613          	srli	a2,a2,0x1
80003c70:	fe0696e3          	bnez	a3,80003c5c <__udivsi3+0x2c>
80003c74:	00008067          	ret

80003c78 <__umodsi3>:
80003c78:	00008293          	mv	t0,ra
80003c7c:	fb5ff0ef          	jal	ra,80003c30 <__udivsi3>
80003c80:	00058513          	mv	a0,a1
80003c84:	00028067          	jr	t0
80003c88:	40a00533          	neg	a0,a0
80003c8c:	0005d863          	bgez	a1,80003c9c <__umodsi3+0x24>
80003c90:	40b005b3          	neg	a1,a1
80003c94:	f9dff06f          	j	80003c30 <__udivsi3>
80003c98:	40b005b3          	neg	a1,a1
80003c9c:	00008293          	mv	t0,ra
80003ca0:	f91ff0ef          	jal	ra,80003c30 <__udivsi3>
80003ca4:	40a00533          	neg	a0,a0
80003ca8:	00028067          	jr	t0

80003cac <__modsi3>:
80003cac:	00008293          	mv	t0,ra
80003cb0:	0005ca63          	bltz	a1,80003cc4 <__modsi3+0x18>
80003cb4:	00054c63          	bltz	a0,80003ccc <__modsi3+0x20>
80003cb8:	f79ff0ef          	jal	ra,80003c30 <__udivsi3>
80003cbc:	00058513          	mv	a0,a1
80003cc0:	00028067          	jr	t0
80003cc4:	40b005b3          	neg	a1,a1
80003cc8:	fe0558e3          	bgez	a0,80003cb8 <__modsi3+0xc>
80003ccc:	40a00533          	neg	a0,a0
80003cd0:	f61ff0ef          	jal	ra,80003c30 <__udivsi3>
80003cd4:	40b00533          	neg	a0,a1
80003cd8:	00028067          	jr	t0

Disassembly of section .text.startup:

80003cdc <main>:
80003cdc:	f7010113          	addi	sp,sp,-144
80003ce0:	00058613          	mv	a2,a1
80003ce4:	00a12623          	sw	a0,12(sp)
80003ce8:	00c10593          	addi	a1,sp,12
80003cec:	05e10513          	addi	a0,sp,94
80003cf0:	08112623          	sw	ra,140(sp)
80003cf4:	08812423          	sw	s0,136(sp)
80003cf8:	08912223          	sw	s1,132(sp)
80003cfc:	09212023          	sw	s2,128(sp)
80003d00:	07312e23          	sw	s3,124(sp)
80003d04:	07412c23          	sw	s4,120(sp)
80003d08:	07512a23          	sw	s5,116(sp)
80003d0c:	07612823          	sw	s6,112(sp)
80003d10:	07712623          	sw	s7,108(sp)
80003d14:	07812423          	sw	s8,104(sp)
80003d18:	07912223          	sw	s9,100(sp)
80003d1c:	07a12023          	sw	s10,96(sp)
80003d20:	e31ff0ef          	jal	ra,80003b50 <portable_init>
80003d24:	00100513          	li	a0,1
80003d28:	c85ff0ef          	jal	ra,800039ac <get_seed_32>
80003d2c:	00a11e23          	sh	a0,28(sp)
80003d30:	00200513          	li	a0,2
80003d34:	c79ff0ef          	jal	ra,800039ac <get_seed_32>
80003d38:	00a11f23          	sh	a0,30(sp)
80003d3c:	00300513          	li	a0,3
80003d40:	c6dff0ef          	jal	ra,800039ac <get_seed_32>
80003d44:	02a11023          	sh	a0,32(sp)
80003d48:	00400513          	li	a0,4
80003d4c:	c61ff0ef          	jal	ra,800039ac <get_seed_32>
80003d50:	02a12c23          	sw	a0,56(sp)
80003d54:	00500513          	li	a0,5
80003d58:	c55ff0ef          	jal	ra,800039ac <get_seed_32>
80003d5c:	20050663          	beqz	a0,80003f68 <main+0x28c>
80003d60:	02a12e23          	sw	a0,60(sp)
80003d64:	01c12783          	lw	a5,28(sp)
80003d68:	36079663          	bnez	a5,800040d4 <main+0x3f8>
80003d6c:	02011783          	lh	a5,32(sp)
80003d70:	38078063          	beqz	a5,800040f0 <main+0x414>
80003d74:	03c12403          	lw	s0,60(sp)
80003d78:	00001797          	auipc	a5,0x1
80003d7c:	2a078793          	addi	a5,a5,672 # 80005018 <static_memblk>
80003d80:	02f12223          	sw	a5,36(sp)
80003d84:	00147913          	andi	s2,s0,1
80003d88:	00247493          	andi	s1,s0,2
80003d8c:	01091593          	slli	a1,s2,0x10
80003d90:	0105d593          	srli	a1,a1,0x10
80003d94:	00903733          	snez	a4,s1
80003d98:	04011e23          	sh	zero,92(sp)
80003d9c:	00447793          	andi	a5,s0,4
80003da0:	00e585b3          	add	a1,a1,a4
80003da4:	00078863          	beqz	a5,80003db4 <main+0xd8>
80003da8:	00158593          	addi	a1,a1,1
80003dac:	01059593          	slli	a1,a1,0x10
80003db0:	0105d593          	srli	a1,a1,0x10
80003db4:	7d000513          	li	a0,2000
80003db8:	e79ff0ef          	jal	ra,80003c30 <__udivsi3>
80003dbc:	00050a13          	mv	s4,a0
80003dc0:	02a12a23          	sw	a0,52(sp)
80003dc4:	00000993          	li	s3,0
80003dc8:	00000b93          	li	s7,0
80003dcc:	00100b13          	li	s6,1
80003dd0:	00300a93          	li	s5,3
80003dd4:	013b17b3          	sll	a5,s6,s3
80003dd8:	0087f7b3          	and	a5,a5,s0
80003ddc:	14079c63          	bnez	a5,80003f34 <main+0x258>
80003de0:	00198993          	addi	s3,s3,1
80003de4:	ff5998e3          	bne	s3,s5,80003dd4 <main+0xf8>
80003de8:	10091263          	bnez	s2,80003eec <main+0x210>
80003dec:	12049063          	bnez	s1,80003f0c <main+0x230>
80003df0:	00447413          	andi	s0,s0,4
80003df4:	00040a63          	beqz	s0,80003e08 <main+0x12c>
80003df8:	03012603          	lw	a2,48(sp)
80003dfc:	01c11583          	lh	a1,28(sp)
80003e00:	03412503          	lw	a0,52(sp)
80003e04:	d74ff0ef          	jal	ra,80003378 <core_init_state>
80003e08:	03812783          	lw	a5,56(sp)
80003e0c:	04079c63          	bnez	a5,80003e64 <main+0x188>
80003e10:	00100793          	li	a5,1
80003e14:	02f12c23          	sw	a5,56(sp)
80003e18:	03812703          	lw	a4,56(sp)
80003e1c:	00271793          	slli	a5,a4,0x2
80003e20:	00e787b3          	add	a5,a5,a4
80003e24:	00179793          	slli	a5,a5,0x1
80003e28:	02f12c23          	sw	a5,56(sp)
80003e2c:	cf5ff0ef          	jal	ra,80003b20 <start_time>
80003e30:	01c10513          	addi	a0,sp,28
80003e34:	a2dfe0ef          	jal	ra,80002860 <iterate>
80003e38:	cedff0ef          	jal	ra,80003b24 <stop_time>
80003e3c:	cedff0ef          	jal	ra,80003b28 <get_time>
80003e40:	cf1ff0ef          	jal	ra,80003b30 <time_in_secs>
80003e44:	fc050ae3          	beqz	a0,80003e18 <main+0x13c>
80003e48:	00050593          	mv	a1,a0
80003e4c:	00a00513          	li	a0,10
80003e50:	de1ff0ef          	jal	ra,80003c30 <__udivsi3>
80003e54:	00150593          	addi	a1,a0,1
80003e58:	03812503          	lw	a0,56(sp)
80003e5c:	da9ff0ef          	jal	ra,80003c04 <__mulsi3>
80003e60:	02a12c23          	sw	a0,56(sp)
80003e64:	cbdff0ef          	jal	ra,80003b20 <start_time>
80003e68:	01c10513          	addi	a0,sp,28
80003e6c:	9f5fe0ef          	jal	ra,80002860 <iterate>
80003e70:	cb5ff0ef          	jal	ra,80003b24 <stop_time>
80003e74:	cb5ff0ef          	jal	ra,80003b28 <get_time>
80003e78:	00050993          	mv	s3,a0
80003e7c:	01c11503          	lh	a0,28(sp)
80003e80:	00000593          	li	a1,0
80003e84:	c89ff0ef          	jal	ra,80003b0c <crc16>
80003e88:	00050593          	mv	a1,a0
80003e8c:	01e11503          	lh	a0,30(sp)
80003e90:	c7dff0ef          	jal	ra,80003b0c <crc16>
80003e94:	00050593          	mv	a1,a0
80003e98:	02011503          	lh	a0,32(sp)
80003e9c:	c71ff0ef          	jal	ra,80003b0c <crc16>
80003ea0:	00050593          	mv	a1,a0
80003ea4:	03411503          	lh	a0,52(sp)
80003ea8:	c65ff0ef          	jal	ra,80003b0c <crc16>
80003eac:	000087b7          	lui	a5,0x8
80003eb0:	b0578793          	addi	a5,a5,-1275 # 7b05 <_start-0x7fff84fb>
80003eb4:	00050913          	mv	s2,a0
80003eb8:	58f50663          	beq	a0,a5,80004444 <main+0x768>
80003ebc:	0aa7ec63          	bltu	a5,a0,80003f74 <main+0x298>
80003ec0:	000027b7          	lui	a5,0x2
80003ec4:	8f278793          	addi	a5,a5,-1806 # 18f2 <_start-0x7fffe70e>
80003ec8:	56f50463          	beq	a0,a5,80004430 <main+0x754>
80003ecc:	000057b7          	lui	a5,0x5
80003ed0:	eaf78793          	addi	a5,a5,-337 # 4eaf <_start-0x7fffb151>
80003ed4:	22f51463          	bne	a0,a5,800040fc <main+0x420>
80003ed8:	00000517          	auipc	a0,0x0
80003edc:	68050513          	addi	a0,a0,1664 # 80004558 <errpat+0x84>
80003ee0:	c85ff0ef          	jal	ra,80003b64 <ee_printf>
80003ee4:	00200c93          	li	s9,2
80003ee8:	0b40006f          	j	80003f9c <main+0x2c0>
80003eec:	01c11603          	lh	a2,28(sp)
80003ef0:	02812583          	lw	a1,40(sp)
80003ef4:	000a0513          	mv	a0,s4
80003ef8:	fb0fe0ef          	jal	ra,800026a8 <core_list_init>
80003efc:	03c12403          	lw	s0,60(sp)
80003f00:	04a12023          	sw	a0,64(sp)
80003f04:	00247493          	andi	s1,s0,2
80003f08:	ee0484e3          	beqz	s1,80003df0 <main+0x114>
80003f0c:	01e11783          	lh	a5,30(sp)
80003f10:	01c11603          	lh	a2,28(sp)
80003f14:	02c12583          	lw	a1,44(sp)
80003f18:	03412503          	lw	a0,52(sp)
80003f1c:	01079793          	slli	a5,a5,0x10
80003f20:	04410693          	addi	a3,sp,68
80003f24:	00c7e633          	or	a2,a5,a2
80003f28:	9c5fe0ef          	jal	ra,800028ec <core_init_matrix>
80003f2c:	03c12403          	lw	s0,60(sp)
80003f30:	ec1ff06f          	j	80003df0 <main+0x114>
80003f34:	01c10793          	addi	a5,sp,28
80003f38:	000b8513          	mv	a0,s7
80003f3c:	00299c13          	slli	s8,s3,0x2
80003f40:	000a0593          	mv	a1,s4
80003f44:	01878c33          	add	s8,a5,s8
80003f48:	cbdff0ef          	jal	ra,80003c04 <__mulsi3>
80003f4c:	02412783          	lw	a5,36(sp)
80003f50:	001b8b93          	addi	s7,s7,1
80003f54:	010b9b93          	slli	s7,s7,0x10
80003f58:	00a78533          	add	a0,a5,a0
80003f5c:	010bdb93          	srli	s7,s7,0x10
80003f60:	00ac2623          	sw	a0,12(s8)
80003f64:	e7dff06f          	j	80003de0 <main+0x104>
80003f68:	00700793          	li	a5,7
80003f6c:	02f12e23          	sw	a5,60(sp)
80003f70:	df5ff06f          	j	80003d64 <main+0x88>
80003f74:	000097b7          	lui	a5,0x9
80003f78:	a0278793          	addi	a5,a5,-1534 # 8a02 <_start-0x7fff75fe>
80003f7c:	4af50063          	beq	a0,a5,8000441c <main+0x740>
80003f80:	0000f7b7          	lui	a5,0xf
80003f84:	9f578793          	addi	a5,a5,-1547 # e9f5 <_start-0x7fff160b>
80003f88:	16f51a63          	bne	a0,a5,800040fc <main+0x420>
80003f8c:	00000517          	auipc	a0,0x0
80003f90:	60050513          	addi	a0,a0,1536 # 8000458c <errpat+0xb8>
80003f94:	bd1ff0ef          	jal	ra,80003b64 <ee_printf>
80003f98:	00300c93          	li	s9,3
80003f9c:	00001b97          	auipc	s7,0x1
80003fa0:	070b8b93          	addi	s7,s7,112 # 8000500c <default_num_contexts>
80003fa4:	000ba783          	lw	a5,0(s7)
80003fa8:	00000d13          	li	s10,0
80003fac:	00000c13          	li	s8,0
80003fb0:	4a078463          	beqz	a5,80004458 <main+0x77c>
80003fb4:	001c9c93          	slli	s9,s9,0x1
80003fb8:	00000797          	auipc	a5,0x0
80003fbc:	4b478793          	addi	a5,a5,1204 # 8000446c <list_known_crc>
80003fc0:	01978cb3          	add	s9,a5,s9
80003fc4:	00000b17          	auipc	s6,0x0
80003fc8:	624b0b13          	addi	s6,s6,1572 # 800045e8 <errpat+0x114>
80003fcc:	00000a97          	auipc	s5,0x0
80003fd0:	64ca8a93          	addi	s5,s5,1612 # 80004618 <errpat+0x144>
80003fd4:	00000a17          	auipc	s4,0x0
80003fd8:	678a0a13          	addi	s4,s4,1656 # 8000464c <errpat+0x178>
80003fdc:	0400006f          	j	8000401c <main+0x340>
80003fe0:	01840433          	add	s0,s0,s8
80003fe4:	00241413          	slli	s0,s0,0x2
80003fe8:	06010793          	addi	a5,sp,96
80003fec:	00878433          	add	s0,a5,s0
80003ff0:	ffc41403          	lh	s0,-4(s0)
80003ff4:	01a40433          	add	s0,s0,s10
80003ff8:	001c0c13          	addi	s8,s8,1
80003ffc:	01041413          	slli	s0,s0,0x10
80004000:	000ba783          	lw	a5,0(s7)
80004004:	01045413          	srli	s0,s0,0x10
80004008:	010c1c13          	slli	s8,s8,0x10
8000400c:	01041d13          	slli	s10,s0,0x10
80004010:	010c5c13          	srli	s8,s8,0x10
80004014:	410d5d13          	srai	s10,s10,0x10
80004018:	0efc7a63          	bgeu	s8,a5,8000410c <main+0x430>
8000401c:	004c1413          	slli	s0,s8,0x4
80004020:	018404b3          	add	s1,s0,s8
80004024:	06010793          	addi	a5,sp,96
80004028:	00249493          	slli	s1,s1,0x2
8000402c:	009784b3          	add	s1,a5,s1
80004030:	fdc4a783          	lw	a5,-36(s1)
80004034:	fe049e23          	sh	zero,-4(s1)
80004038:	0017f793          	andi	a5,a5,1
8000403c:	02078463          	beqz	a5,80004064 <main+0x388>
80004040:	ff64d603          	lhu	a2,-10(s1)
80004044:	000cd683          	lhu	a3,0(s9)
80004048:	00d60e63          	beq	a2,a3,80004064 <main+0x388>
8000404c:	000c0593          	mv	a1,s8
80004050:	000b0513          	mv	a0,s6
80004054:	b11ff0ef          	jal	ra,80003b64 <ee_printf>
80004058:	ffc4d783          	lhu	a5,-4(s1)
8000405c:	00178793          	addi	a5,a5,1
80004060:	fef49e23          	sh	a5,-4(s1)
80004064:	018404b3          	add	s1,s0,s8
80004068:	06010793          	addi	a5,sp,96
8000406c:	00249493          	slli	s1,s1,0x2
80004070:	009784b3          	add	s1,a5,s1
80004074:	fdc4a783          	lw	a5,-36(s1)
80004078:	0027f713          	andi	a4,a5,2
8000407c:	02070663          	beqz	a4,800040a8 <main+0x3cc>
80004080:	ff84d603          	lhu	a2,-8(s1)
80004084:	00ccd683          	lhu	a3,12(s9)
80004088:	02d60063          	beq	a2,a3,800040a8 <main+0x3cc>
8000408c:	000c0593          	mv	a1,s8
80004090:	000a8513          	mv	a0,s5
80004094:	ad1ff0ef          	jal	ra,80003b64 <ee_printf>
80004098:	ffc4d703          	lhu	a4,-4(s1)
8000409c:	fdc4a783          	lw	a5,-36(s1)
800040a0:	00170713          	addi	a4,a4,1
800040a4:	fee49e23          	sh	a4,-4(s1)
800040a8:	0047f793          	andi	a5,a5,4
800040ac:	f2078ae3          	beqz	a5,80003fe0 <main+0x304>
800040b0:	018404b3          	add	s1,s0,s8
800040b4:	00249493          	slli	s1,s1,0x2
800040b8:	06010793          	addi	a5,sp,96
800040bc:	009784b3          	add	s1,a5,s1
800040c0:	ffa4d603          	lhu	a2,-6(s1)
800040c4:	018cd683          	lhu	a3,24(s9)
800040c8:	2cd61263          	bne	a2,a3,8000438c <main+0x6b0>
800040cc:	ffc49403          	lh	s0,-4(s1)
800040d0:	f25ff06f          	j	80003ff4 <main+0x318>
800040d4:	00100713          	li	a4,1
800040d8:	c8e79ee3          	bne	a5,a4,80003d74 <main+0x98>
800040dc:	02011783          	lh	a5,32(sp)
800040e0:	c8079ae3          	bnez	a5,80003d74 <main+0x98>
800040e4:	341537b7          	lui	a5,0x34153
800040e8:	41578793          	addi	a5,a5,1045 # 34153415 <_start-0x4beacbeb>
800040ec:	00f12e23          	sw	a5,28(sp)
800040f0:	06600793          	li	a5,102
800040f4:	02f11023          	sh	a5,32(sp)
800040f8:	c7dff06f          	j	80003d74 <main+0x98>
800040fc:	00010437          	lui	s0,0x10
80004100:	fff40413          	addi	s0,s0,-1 # ffff <_start-0x7fff0001>
80004104:	00001b97          	auipc	s7,0x1
80004108:	f08b8b93          	addi	s7,s7,-248 # 8000500c <default_num_contexts>
8000410c:	a0dff0ef          	jal	ra,80003b18 <check_data_types>
80004110:	03412583          	lw	a1,52(sp)
80004114:	00a40433          	add	s0,s0,a0
80004118:	00000517          	auipc	a0,0x0
8000411c:	56450513          	addi	a0,a0,1380 # 8000467c <errpat+0x1a8>
80004120:	a45ff0ef          	jal	ra,80003b64 <ee_printf>
80004124:	00098593          	mv	a1,s3
80004128:	00000517          	auipc	a0,0x0
8000412c:	56c50513          	addi	a0,a0,1388 # 80004694 <errpat+0x1c0>
80004130:	a35ff0ef          	jal	ra,80003b64 <ee_printf>
80004134:	00098513          	mv	a0,s3
80004138:	9f9ff0ef          	jal	ra,80003b30 <time_in_secs>
8000413c:	00050593          	mv	a1,a0
80004140:	00000517          	auipc	a0,0x0
80004144:	56c50513          	addi	a0,a0,1388 # 800046ac <errpat+0x1d8>
80004148:	a1dff0ef          	jal	ra,80003b64 <ee_printf>
8000414c:	01041413          	slli	s0,s0,0x10
80004150:	00098513          	mv	a0,s3
80004154:	01045413          	srli	s0,s0,0x10
80004158:	9d9ff0ef          	jal	ra,80003b30 <time_in_secs>
8000415c:	26051463          	bnez	a0,800043c4 <main+0x6e8>
80004160:	00098513          	mv	a0,s3
80004164:	9cdff0ef          	jal	ra,80003b30 <time_in_secs>
80004168:	00900793          	li	a5,9
8000416c:	24a7f263          	bgeu	a5,a0,800043b0 <main+0x6d4>
80004170:	000ba583          	lw	a1,0(s7)
80004174:	03812503          	lw	a0,56(sp)
80004178:	01041493          	slli	s1,s0,0x10
8000417c:	4104d493          	srai	s1,s1,0x10
80004180:	a85ff0ef          	jal	ra,80003c04 <__mulsi3>
80004184:	00050593          	mv	a1,a0
80004188:	00000517          	auipc	a0,0x0
8000418c:	59450513          	addi	a0,a0,1428 # 8000471c <errpat+0x248>
80004190:	9d5ff0ef          	jal	ra,80003b64 <ee_printf>
80004194:	00000597          	auipc	a1,0x0
80004198:	5a058593          	addi	a1,a1,1440 # 80004734 <errpat+0x260>
8000419c:	00000517          	auipc	a0,0x0
800041a0:	5a450513          	addi	a0,a0,1444 # 80004740 <errpat+0x26c>
800041a4:	9c1ff0ef          	jal	ra,80003b64 <ee_printf>
800041a8:	00000597          	auipc	a1,0x0
800041ac:	5b058593          	addi	a1,a1,1456 # 80004758 <errpat+0x284>
800041b0:	00000517          	auipc	a0,0x0
800041b4:	66850513          	addi	a0,a0,1640 # 80004818 <errpat+0x344>
800041b8:	9adff0ef          	jal	ra,80003b64 <ee_printf>
800041bc:	00000597          	auipc	a1,0x0
800041c0:	67458593          	addi	a1,a1,1652 # 80004830 <errpat+0x35c>
800041c4:	00000517          	auipc	a0,0x0
800041c8:	67450513          	addi	a0,a0,1652 # 80004838 <errpat+0x364>
800041cc:	999ff0ef          	jal	ra,80003b64 <ee_printf>
800041d0:	00090593          	mv	a1,s2
800041d4:	00000517          	auipc	a0,0x0
800041d8:	67c50513          	addi	a0,a0,1660 # 80004850 <errpat+0x37c>
800041dc:	989ff0ef          	jal	ra,80003b64 <ee_printf>
800041e0:	03c12783          	lw	a5,60(sp)
800041e4:	0017f713          	andi	a4,a5,1
800041e8:	04070a63          	beqz	a4,8000423c <main+0x560>
800041ec:	000ba703          	lw	a4,0(s7)
800041f0:	04070663          	beqz	a4,8000423c <main+0x560>
800041f4:	00000413          	li	s0,0
800041f8:	00000917          	auipc	s2,0x0
800041fc:	67490913          	addi	s2,s2,1652 # 8000486c <errpat+0x398>
80004200:	00441793          	slli	a5,s0,0x4
80004204:	008787b3          	add	a5,a5,s0
80004208:	06010713          	addi	a4,sp,96
8000420c:	00279793          	slli	a5,a5,0x2
80004210:	00f707b3          	add	a5,a4,a5
80004214:	ff67d603          	lhu	a2,-10(a5)
80004218:	00040593          	mv	a1,s0
8000421c:	00090513          	mv	a0,s2
80004220:	945ff0ef          	jal	ra,80003b64 <ee_printf>
80004224:	00140413          	addi	s0,s0,1
80004228:	000ba783          	lw	a5,0(s7)
8000422c:	01041413          	slli	s0,s0,0x10
80004230:	01045413          	srli	s0,s0,0x10
80004234:	fcf466e3          	bltu	s0,a5,80004200 <main+0x524>
80004238:	03c12783          	lw	a5,60(sp)
8000423c:	0027f713          	andi	a4,a5,2
80004240:	04070a63          	beqz	a4,80004294 <main+0x5b8>
80004244:	000ba703          	lw	a4,0(s7)
80004248:	20070c63          	beqz	a4,80004460 <main+0x784>
8000424c:	00000413          	li	s0,0
80004250:	00000917          	auipc	s2,0x0
80004254:	63890913          	addi	s2,s2,1592 # 80004888 <errpat+0x3b4>
80004258:	00441793          	slli	a5,s0,0x4
8000425c:	008787b3          	add	a5,a5,s0
80004260:	06010713          	addi	a4,sp,96
80004264:	00279793          	slli	a5,a5,0x2
80004268:	00f707b3          	add	a5,a4,a5
8000426c:	ff87d603          	lhu	a2,-8(a5)
80004270:	00040593          	mv	a1,s0
80004274:	00090513          	mv	a0,s2
80004278:	8edff0ef          	jal	ra,80003b64 <ee_printf>
8000427c:	00140413          	addi	s0,s0,1
80004280:	000ba783          	lw	a5,0(s7)
80004284:	01041413          	slli	s0,s0,0x10
80004288:	01045413          	srli	s0,s0,0x10
8000428c:	fcf466e3          	bltu	s0,a5,80004258 <main+0x57c>
80004290:	03c12783          	lw	a5,60(sp)
80004294:	0047f793          	andi	a5,a5,4
80004298:	04078863          	beqz	a5,800042e8 <main+0x60c>
8000429c:	000ba783          	lw	a5,0(s7)
800042a0:	00000413          	li	s0,0
800042a4:	00000917          	auipc	s2,0x0
800042a8:	60090913          	addi	s2,s2,1536 # 800048a4 <errpat+0x3d0>
800042ac:	08078463          	beqz	a5,80004334 <main+0x658>
800042b0:	00441793          	slli	a5,s0,0x4
800042b4:	008787b3          	add	a5,a5,s0
800042b8:	06010713          	addi	a4,sp,96
800042bc:	00279793          	slli	a5,a5,0x2
800042c0:	00f707b3          	add	a5,a4,a5
800042c4:	ffa7d603          	lhu	a2,-6(a5)
800042c8:	00040593          	mv	a1,s0
800042cc:	00090513          	mv	a0,s2
800042d0:	895ff0ef          	jal	ra,80003b64 <ee_printf>
800042d4:	00140413          	addi	s0,s0,1
800042d8:	000ba783          	lw	a5,0(s7)
800042dc:	01041413          	slli	s0,s0,0x10
800042e0:	01045413          	srli	s0,s0,0x10
800042e4:	fcf466e3          	bltu	s0,a5,800042b0 <main+0x5d4>
800042e8:	000ba783          	lw	a5,0(s7)
800042ec:	00000413          	li	s0,0
800042f0:	00000917          	auipc	s2,0x0
800042f4:	5d090913          	addi	s2,s2,1488 # 800048c0 <errpat+0x3ec>
800042f8:	02078e63          	beqz	a5,80004334 <main+0x658>
800042fc:	00441793          	slli	a5,s0,0x4
80004300:	008787b3          	add	a5,a5,s0
80004304:	06010713          	addi	a4,sp,96
80004308:	00279793          	slli	a5,a5,0x2
8000430c:	00f707b3          	add	a5,a4,a5
80004310:	ff47d603          	lhu	a2,-12(a5)
80004314:	00040593          	mv	a1,s0
80004318:	00090513          	mv	a0,s2
8000431c:	849ff0ef          	jal	ra,80003b64 <ee_printf>
80004320:	00140413          	addi	s0,s0,1
80004324:	000ba783          	lw	a5,0(s7)
80004328:	01041413          	slli	s0,s0,0x10
8000432c:	01045413          	srli	s0,s0,0x10
80004330:	fcf466e3          	bltu	s0,a5,800042fc <main+0x620>
80004334:	0c048463          	beqz	s1,800043fc <main+0x720>
80004338:	0c905a63          	blez	s1,8000440c <main+0x730>
8000433c:	00000517          	auipc	a0,0x0
80004340:	5ec50513          	addi	a0,a0,1516 # 80004928 <errpat+0x454>
80004344:	821ff0ef          	jal	ra,80003b64 <ee_printf>
80004348:	05e10513          	addi	a0,sp,94
8000434c:	811ff0ef          	jal	ra,80003b5c <portable_fini>
80004350:	08c12083          	lw	ra,140(sp)
80004354:	08812403          	lw	s0,136(sp)
80004358:	08412483          	lw	s1,132(sp)
8000435c:	08012903          	lw	s2,128(sp)
80004360:	07c12983          	lw	s3,124(sp)
80004364:	07812a03          	lw	s4,120(sp)
80004368:	07412a83          	lw	s5,116(sp)
8000436c:	07012b03          	lw	s6,112(sp)
80004370:	06c12b83          	lw	s7,108(sp)
80004374:	06812c03          	lw	s8,104(sp)
80004378:	06412c83          	lw	s9,100(sp)
8000437c:	06012d03          	lw	s10,96(sp)
80004380:	00000513          	li	a0,0
80004384:	09010113          	addi	sp,sp,144
80004388:	00008067          	ret
8000438c:	000c0593          	mv	a1,s8
80004390:	000a0513          	mv	a0,s4
80004394:	fd0ff0ef          	jal	ra,80003b64 <ee_printf>
80004398:	ffc4d783          	lhu	a5,-4(s1)
8000439c:	00178793          	addi	a5,a5,1
800043a0:	01079413          	slli	s0,a5,0x10
800043a4:	41045413          	srai	s0,s0,0x10
800043a8:	fe849e23          	sh	s0,-4(s1)
800043ac:	c49ff06f          	j	80003ff4 <main+0x318>
800043b0:	00000517          	auipc	a0,0x0
800043b4:	32c50513          	addi	a0,a0,812 # 800046dc <errpat+0x208>
800043b8:	facff0ef          	jal	ra,80003b64 <ee_printf>
800043bc:	00140413          	addi	s0,s0,1
800043c0:	db1ff06f          	j	80004170 <main+0x494>
800043c4:	000ba583          	lw	a1,0(s7)
800043c8:	03812503          	lw	a0,56(sp)
800043cc:	839ff0ef          	jal	ra,80003c04 <__mulsi3>
800043d0:	00050493          	mv	s1,a0
800043d4:	00098513          	mv	a0,s3
800043d8:	f58ff0ef          	jal	ra,80003b30 <time_in_secs>
800043dc:	00050593          	mv	a1,a0
800043e0:	00048513          	mv	a0,s1
800043e4:	84dff0ef          	jal	ra,80003c30 <__udivsi3>
800043e8:	00050593          	mv	a1,a0
800043ec:	00000517          	auipc	a0,0x0
800043f0:	2d850513          	addi	a0,a0,728 # 800046c4 <errpat+0x1f0>
800043f4:	f70ff0ef          	jal	ra,80003b64 <ee_printf>
800043f8:	d69ff06f          	j	80004160 <main+0x484>
800043fc:	00000517          	auipc	a0,0x0
80004400:	4e050513          	addi	a0,a0,1248 # 800048dc <errpat+0x408>
80004404:	f60ff0ef          	jal	ra,80003b64 <ee_printf>
80004408:	f41ff06f          	j	80004348 <main+0x66c>
8000440c:	00000517          	auipc	a0,0x0
80004410:	53050513          	addi	a0,a0,1328 # 8000493c <errpat+0x468>
80004414:	f50ff0ef          	jal	ra,80003b64 <ee_printf>
80004418:	f31ff06f          	j	80004348 <main+0x66c>
8000441c:	00000517          	auipc	a0,0x0
80004420:	0e050513          	addi	a0,a0,224 # 800044fc <errpat+0x28>
80004424:	f40ff0ef          	jal	ra,80003b64 <ee_printf>
80004428:	00000c93          	li	s9,0
8000442c:	b71ff06f          	j	80003f9c <main+0x2c0>
80004430:	00000517          	auipc	a0,0x0
80004434:	18c50513          	addi	a0,a0,396 # 800045bc <errpat+0xe8>
80004438:	f2cff0ef          	jal	ra,80003b64 <ee_printf>
8000443c:	00400c93          	li	s9,4
80004440:	b5dff06f          	j	80003f9c <main+0x2c0>
80004444:	00000517          	auipc	a0,0x0
80004448:	0e850513          	addi	a0,a0,232 # 8000452c <errpat+0x58>
8000444c:	f18ff0ef          	jal	ra,80003b64 <ee_printf>
80004450:	00100c93          	li	s9,1
80004454:	b49ff06f          	j	80003f9c <main+0x2c0>
80004458:	00000413          	li	s0,0
8000445c:	cb1ff06f          	j	8000410c <main+0x430>
80004460:	0047f793          	andi	a5,a5,4
80004464:	ec0798e3          	bnez	a5,80004334 <main+0x658>
80004468:	e81ff06f          	j	800042e8 <main+0x60c>
