
nw.riscv:     file format elf32-littleriscv


Disassembly of section .text.init:

80000000 <_start>:
80000000:	00000093          	li	ra,0
80000004:	00000113          	li	sp,0
80000008:	00000193          	li	gp,0
8000000c:	00000213          	li	tp,0
80000010:	00000293          	li	t0,0
80000014:	00000313          	li	t1,0
80000018:	00000393          	li	t2,0
8000001c:	00000413          	li	s0,0
80000020:	00000493          	li	s1,0
80000024:	00000513          	li	a0,0
80000028:	00000593          	li	a1,0
8000002c:	00000613          	li	a2,0
80000030:	00000693          	li	a3,0
80000034:	00000713          	li	a4,0
80000038:	00000793          	li	a5,0
8000003c:	00000813          	li	a6,0
80000040:	00000893          	li	a7,0
80000044:	00000913          	li	s2,0
80000048:	00000993          	li	s3,0
8000004c:	00000a13          	li	s4,0
80000050:	00000a93          	li	s5,0
80000054:	00000b13          	li	s6,0
80000058:	00000b93          	li	s7,0
8000005c:	00000c13          	li	s8,0
80000060:	00000c93          	li	s9,0
80000064:	00000d13          	li	s10,0
80000068:	00000d93          	li	s11,0
8000006c:	00000e13          	li	t3,0
80000070:	00000e93          	li	t4,0
80000074:	00000f13          	li	t5,0
80000078:	00000f93          	li	t6,0
8000007c:	0001e2b7          	lui	t0,0x1e
80000080:	3002a073          	csrs	mstatus,t0
80000084:	00100293          	li	t0,1
80000088:	01f29293          	slli	t0,t0,0x1f
8000008c:	0002ca63          	bltz	t0,800000a0 <_start+0xa0>
80000090:	00100513          	li	a0,1
80000094:	00001297          	auipc	t0,0x1
80000098:	f6a2a623          	sw	a0,-148(t0) # 80001000 <tohost>
8000009c:	ff5ff06f          	j	80000090 <_start+0x90>
800000a0:	00000297          	auipc	t0,0x0
800000a4:	05428293          	addi	t0,t0,84 # 800000f4 <trap_entry>
800000a8:	30529073          	csrw	mtvec,t0
800000ac:	00018197          	auipc	gp,0x18
800000b0:	f5c18193          	addi	gp,gp,-164 # 80018008 <__global_pointer$>
800000b4:	00017217          	auipc	tp,0x17
800000b8:	79320213          	addi	tp,tp,1939 # 80017847 <_end+0x3f>
800000bc:	fc027213          	andi	tp,tp,-64
800000c0:	f1402573          	csrr	a0,mhartid
800000c4:	00100593          	li	a1,1
800000c8:	00b57063          	bgeu	a0,a1,800000c8 <_start+0xc8>
800000cc:	00150113          	addi	sp,a0,1
800000d0:	01111113          	slli	sp,sp,0x11
800000d4:	00410133          	add	sp,sp,tp
800000d8:	01151613          	slli	a2,a0,0x11
800000dc:	00c20233          	add	tp,tp,a2
800000e0:	1cc020ef          	jal	ra,800022ac <main>
800000e4:	00100193          	li	gp,1

800000e8 <write_tohost>:
800000e8:	00001f17          	auipc	t5,0x1
800000ec:	f03f2c23          	sw	gp,-232(t5) # 80001000 <tohost>
800000f0:	ff9ff06f          	j	800000e8 <write_tohost>

800000f4 <trap_entry>:
800000f4:	ef010113          	addi	sp,sp,-272
800000f8:	00112223          	sw	ra,4(sp)
800000fc:	00212423          	sw	sp,8(sp)
80000100:	00312623          	sw	gp,12(sp)
80000104:	00412823          	sw	tp,16(sp)
80000108:	00512a23          	sw	t0,20(sp)
8000010c:	00612c23          	sw	t1,24(sp)
80000110:	00712e23          	sw	t2,28(sp)
80000114:	02812023          	sw	s0,32(sp)
80000118:	02912223          	sw	s1,36(sp)
8000011c:	02a12423          	sw	a0,40(sp)
80000120:	02b12623          	sw	a1,44(sp)
80000124:	02c12823          	sw	a2,48(sp)
80000128:	02d12a23          	sw	a3,52(sp)
8000012c:	02e12c23          	sw	a4,56(sp)
80000130:	02f12e23          	sw	a5,60(sp)
80000134:	05012023          	sw	a6,64(sp)
80000138:	05112223          	sw	a7,68(sp)
8000013c:	05212423          	sw	s2,72(sp)
80000140:	05312623          	sw	s3,76(sp)
80000144:	05412823          	sw	s4,80(sp)
80000148:	05512a23          	sw	s5,84(sp)
8000014c:	05612c23          	sw	s6,88(sp)
80000150:	05712e23          	sw	s7,92(sp)
80000154:	07812023          	sw	s8,96(sp)
80000158:	07912223          	sw	s9,100(sp)
8000015c:	07a12423          	sw	s10,104(sp)
80000160:	07b12623          	sw	s11,108(sp)
80000164:	07c12823          	sw	t3,112(sp)
80000168:	07d12a23          	sw	t4,116(sp)
8000016c:	07e12c23          	sw	t5,120(sp)
80000170:	07f12e23          	sw	t6,124(sp)
80000174:	34202573          	csrr	a0,mcause
80000178:	341025f3          	csrr	a1,mepc
8000017c:	00010613          	mv	a2,sp
80000180:	6a1010ef          	jal	ra,80002020 <handle_trap>
80000184:	34151073          	csrw	mepc,a0
80000188:	000022b7          	lui	t0,0x2
8000018c:	80028293          	addi	t0,t0,-2048 # 1800 <_start-0x7fffe800>
80000190:	3002a073          	csrs	mstatus,t0
80000194:	00412083          	lw	ra,4(sp)
80000198:	00812103          	lw	sp,8(sp)
8000019c:	00c12183          	lw	gp,12(sp)
800001a0:	01012203          	lw	tp,16(sp)
800001a4:	01412283          	lw	t0,20(sp)
800001a8:	01812303          	lw	t1,24(sp)
800001ac:	01c12383          	lw	t2,28(sp)
800001b0:	02012403          	lw	s0,32(sp)
800001b4:	02412483          	lw	s1,36(sp)
800001b8:	02812503          	lw	a0,40(sp)
800001bc:	02c12583          	lw	a1,44(sp)
800001c0:	03012603          	lw	a2,48(sp)
800001c4:	03412683          	lw	a3,52(sp)
800001c8:	03812703          	lw	a4,56(sp)
800001cc:	03c12783          	lw	a5,60(sp)
800001d0:	04012803          	lw	a6,64(sp)
800001d4:	04412883          	lw	a7,68(sp)
800001d8:	04812903          	lw	s2,72(sp)
800001dc:	04c12983          	lw	s3,76(sp)
800001e0:	05012a03          	lw	s4,80(sp)
800001e4:	05412a83          	lw	s5,84(sp)
800001e8:	05812b03          	lw	s6,88(sp)
800001ec:	05c12b83          	lw	s7,92(sp)
800001f0:	06012c03          	lw	s8,96(sp)
800001f4:	06412c83          	lw	s9,100(sp)
800001f8:	06812d03          	lw	s10,104(sp)
800001fc:	06c12d83          	lw	s11,108(sp)
80000200:	07012e03          	lw	t3,112(sp)
80000204:	07412e83          	lw	t4,116(sp)
80000208:	07812f03          	lw	t5,120(sp)
8000020c:	07c12f83          	lw	t6,124(sp)
80000210:	11010113          	addi	sp,sp,272
80000214:	30200073          	mret

Disassembly of section .text:

80002000 <tohost_exit>:
80002000:	00151513          	slli	a0,a0,0x1
80002004:	fffff697          	auipc	a3,0xfffff
80002008:	ffc68693          	addi	a3,a3,-4 # 80001000 <tohost>
8000200c:	00156713          	ori	a4,a0,1
80002010:	00000793          	li	a5,0
80002014:	00e6a023          	sw	a4,0(a3)
80002018:	00f6a223          	sw	a5,4(a3)
8000201c:	0000006f          	j	8000201c <tohost_exit+0x1c>

80002020 <handle_trap>:
80002020:	00001637          	lui	a2,0x1
80002024:	fffff797          	auipc	a5,0xfffff
80002028:	fdc78793          	addi	a5,a5,-36 # 80001000 <tohost>
8000202c:	a7360613          	addi	a2,a2,-1421 # a73 <_start-0x7ffff58d>
80002030:	00000693          	li	a3,0
80002034:	00c7a023          	sw	a2,0(a5)
80002038:	00d7a223          	sw	a3,4(a5)
8000203c:	0000006f          	j	8000203c <handle_trap+0x1c>

80002040 <exit>:
80002040:	ff010113          	addi	sp,sp,-16
80002044:	00112623          	sw	ra,12(sp)
80002048:	fb9ff0ef          	jal	ra,80002000 <tohost_exit>

8000204c <abort>:
8000204c:	fffff797          	auipc	a5,0xfffff
80002050:	fb478793          	addi	a5,a5,-76 # 80001000 <tohost>
80002054:	10d00613          	li	a2,269
80002058:	00000693          	li	a3,0
8000205c:	00c7a023          	sw	a2,0(a5)
80002060:	00d7a223          	sw	a3,4(a5)
80002064:	0000006f          	j	80002064 <abort+0x18>

80002068 <needwun>:
80002068:	fe010113          	addi	sp,sp,-32
8000206c:	00812e23          	sw	s0,28(sp)
80002070:	00912c23          	sw	s1,24(sp)
80002074:	01212a23          	sw	s2,20(sp)
80002078:	00068493          	mv	s1,a3
8000207c:	00078913          	mv	s2,a5
80002080:	01312823          	sw	s3,16(sp)
80002084:	01412623          	sw	s4,12(sp)
80002088:	00060413          	mv	s0,a2
8000208c:	00070313          	mv	t1,a4
80002090:	00070793          	mv	a5,a4
80002094:	00000813          	li	a6,0
80002098:	f7f00693          	li	a3,-129
8000209c:	0107a023          	sw	a6,0(a5)
800020a0:	fff80813          	addi	a6,a6,-1
800020a4:	00478793          	addi	a5,a5,4
800020a8:	fed81ae3          	bne	a6,a3,8000209c <needwun+0x34>
800020ac:	00070793          	mv	a5,a4
800020b0:	f7f00693          	li	a3,-129
800020b4:	00000713          	li	a4,0
800020b8:	00e7a023          	sw	a4,0(a5)
800020bc:	fff70713          	addi	a4,a4,-1
800020c0:	20478793          	addi	a5,a5,516
800020c4:	fed71ae3          	bne	a4,a3,800020b8 <needwun+0x50>
800020c8:	00004a37          	lui	s4,0x4
800020cc:	182a0a13          	addi	s4,s4,386 # 4182 <_start-0x7fffbe7e>
800020d0:	10290293          	addi	t0,s2,258
800020d4:	00058393          	mv	t2,a1
800020d8:	01490a33          	add	s4,s2,s4
800020dc:	05c00793          	li	a5,92
800020e0:	05e00613          	li	a2,94
800020e4:	03c00693          	li	a3,60
800020e8:	20430993          	addi	s3,t1,516
800020ec:	00050f13          	mv	t5,a0
800020f0:	f8028e93          	addi	t4,t0,-128
800020f4:	00098e13          	mv	t3,s3
800020f8:	000f4883          	lbu	a7,0(t5)
800020fc:	0003c803          	lbu	a6,0(t2)
80002100:	fff00713          	li	a4,-1
80002104:	01089463          	bne	a7,a6,8000210c <needwun+0xa4>
80002108:	00100713          	li	a4,1
8000210c:	00432803          	lw	a6,4(t1)
80002110:	000e2883          	lw	a7,0(t3)
80002114:	00032f83          	lw	t6,0(t1)
80002118:	fff80813          	addi	a6,a6,-1
8000211c:	fff88893          	addi	a7,a7,-1
80002120:	01f70733          	add	a4,a4,t6
80002124:	00080f93          	mv	t6,a6
80002128:	01185463          	bge	a6,a7,80002130 <needwun+0xc8>
8000212c:	00088f93          	mv	t6,a7
80002130:	01f75463          	bge	a4,t6,80002138 <needwun+0xd0>
80002134:	000f8713          	mv	a4,t6
80002138:	00ee2223          	sw	a4,4(t3)
8000213c:	12e88663          	beq	a7,a4,80002268 <needwun+0x200>
80002140:	12e80863          	beq	a6,a4,80002270 <needwun+0x208>
80002144:	00fe8023          	sb	a5,0(t4)
80002148:	001e8e93          	addi	t4,t4,1
8000214c:	001f0f13          	addi	t5,t5,1
80002150:	00430313          	addi	t1,t1,4
80002154:	004e0e13          	addi	t3,t3,4
80002158:	fbd290e3          	bne	t0,t4,800020f8 <needwun+0x90>
8000215c:	08128293          	addi	t0,t0,129
80002160:	00138393          	addi	t2,t2,1
80002164:	00098313          	mv	t1,s3
80002168:	f85a10e3          	bne	s4,t0,800020e8 <needwun+0x80>
8000216c:	08000713          	li	a4,128
80002170:	00771613          	slli	a2,a4,0x7
80002174:	00e60633          	add	a2,a2,a4
80002178:	08000693          	li	a3,128
8000217c:	00c90633          	add	a2,s2,a2
80002180:	00d60633          	add	a2,a2,a3
80002184:	00064603          	lbu	a2,0(a2)
80002188:	00000793          	li	a5,0
8000218c:	05c00e93          	li	t4,92
80002190:	00048893          	mv	a7,s1
80002194:	00040813          	mv	a6,s0
80002198:	03c00e13          	li	t3,60
8000219c:	02d00313          	li	t1,45
800021a0:	00e58f33          	add	t5,a1,a4
800021a4:	00178793          	addi	a5,a5,1
800021a8:	05d60263          	beq	a2,t4,800021ec <needwun+0x184>
800021ac:	0dc60663          	beq	a2,t3,80002278 <needwun+0x210>
800021b0:	00680023          	sb	t1,0(a6)
800021b4:	ffff4603          	lbu	a2,-1(t5)
800021b8:	fff70713          	addi	a4,a4,-1
800021bc:	00c88023          	sb	a2,0(a7)
800021c0:	04d05863          	blez	a3,80002210 <needwun+0x1a8>
800021c4:	00771613          	slli	a2,a4,0x7
800021c8:	00e60633          	add	a2,a2,a4
800021cc:	00c90633          	add	a2,s2,a2
800021d0:	00d60633          	add	a2,a2,a3
800021d4:	00064603          	lbu	a2,0(a2)
800021d8:	00180813          	addi	a6,a6,1
800021dc:	00188893          	addi	a7,a7,1
800021e0:	00e58f33          	add	t5,a1,a4
800021e4:	00178793          	addi	a5,a5,1
800021e8:	fdd612e3          	bne	a2,t4,800021ac <needwun+0x144>
800021ec:	00d50633          	add	a2,a0,a3
800021f0:	fff64f03          	lbu	t5,-1(a2)
800021f4:	00e58633          	add	a2,a1,a4
800021f8:	fff68693          	addi	a3,a3,-1
800021fc:	01e80023          	sb	t5,0(a6)
80002200:	fff64603          	lbu	a2,-1(a2)
80002204:	fff70713          	addi	a4,a4,-1
80002208:	00c88023          	sb	a2,0(a7)
8000220c:	fad04ce3          	bgtz	a3,800021c4 <needwun+0x15c>
80002210:	fae04ae3          	bgtz	a4,800021c4 <needwun+0x15c>
80002214:	0ff00713          	li	a4,255
80002218:	02f74a63          	blt	a4,a5,8000224c <needwun+0x1e4>
8000221c:	00f40733          	add	a4,s0,a5
80002220:	05f00693          	li	a3,95
80002224:	10040413          	addi	s0,s0,256
80002228:	00d70023          	sb	a3,0(a4)
8000222c:	00170713          	addi	a4,a4,1
80002230:	fee41ce3          	bne	s0,a4,80002228 <needwun+0x1c0>
80002234:	00f487b3          	add	a5,s1,a5
80002238:	05f00713          	li	a4,95
8000223c:	10048493          	addi	s1,s1,256
80002240:	00e78023          	sb	a4,0(a5)
80002244:	00178793          	addi	a5,a5,1
80002248:	fef49ce3          	bne	s1,a5,80002240 <needwun+0x1d8>
8000224c:	01c12403          	lw	s0,28(sp)
80002250:	01812483          	lw	s1,24(sp)
80002254:	01412903          	lw	s2,20(sp)
80002258:	01012983          	lw	s3,16(sp)
8000225c:	00c12a03          	lw	s4,12(sp)
80002260:	02010113          	addi	sp,sp,32
80002264:	00008067          	ret
80002268:	00de8023          	sb	a3,0(t4)
8000226c:	eddff06f          	j	80002148 <needwun+0xe0>
80002270:	00ce8023          	sb	a2,0(t4)
80002274:	ed5ff06f          	j	80002148 <needwun+0xe0>
80002278:	00d50633          	add	a2,a0,a3
8000227c:	fff64603          	lbu	a2,-1(a2)
80002280:	fff68693          	addi	a3,a3,-1
80002284:	00c80023          	sb	a2,0(a6)
80002288:	00688023          	sb	t1,0(a7)
8000228c:	f35ff06f          	j	800021c0 <needwun+0x158>

80002290 <_init>:
80002290:	ff010113          	addi	sp,sp,-16
80002294:	00112623          	sw	ra,12(sp)
80002298:	014000ef          	jal	ra,800022ac <main>
8000229c:	d65ff0ef          	jal	ra,80002000 <tohost_exit>

800022a0 <test>:
800022a0:	00000593          	li	a1,0
800022a4:	00000513          	li	a0,0
800022a8:	0040006f          	j	800022ac <main>

Disassembly of section .text.startup:

800022ac <main>:
800022ac:	ff010113          	addi	sp,sp,-16
800022b0:	00001517          	auipc	a0,0x1
800022b4:	d5050513          	addi	a0,a0,-688 # 80003000 <idata>
800022b8:	00011797          	auipc	a5,0x11
800022bc:	44c78793          	addi	a5,a5,1100 # 80013704 <idata+0x10704>
800022c0:	00001717          	auipc	a4,0x1
800022c4:	04070713          	addi	a4,a4,64 # 80003300 <idata+0x300>
800022c8:	00001697          	auipc	a3,0x1
800022cc:	f3868693          	addi	a3,a3,-200 # 80003200 <idata+0x200>
800022d0:	00001617          	auipc	a2,0x1
800022d4:	e3060613          	addi	a2,a2,-464 # 80003100 <idata+0x100>
800022d8:	00001597          	auipc	a1,0x1
800022dc:	da858593          	addi	a1,a1,-600 # 80003080 <idata+0x80>
800022e0:	00112623          	sw	ra,12(sp)
800022e4:	d85ff0ef          	jal	ra,80002068 <needwun>
800022e8:	00c12083          	lw	ra,12(sp)
800022ec:	00000513          	li	a0,0
800022f0:	01010113          	addi	sp,sp,16
800022f4:	00008067          	ret
